 scrypt

 Timestamp is 5b4565a2 (Tue Jul 10 22:04:18 2018)

 Preferred load address is 0000000180000000

 Start         Length     Name                   Class
 0001:00000000 0001e2a0H .text$mn                CODE
 0001:0001e2a0 00000020H .text$mn$00             CODE
 0001:0001e2c0 000005b0H .text$x                 CODE
 0002:00000000 00000268H .idata$5                DATA
 0002:00000268 00000010H .00cfg                  DATA
 0002:00000278 00000008H .CRT$XCA                DATA
 0002:00000280 00000008H .CRT$XCU                DATA
 0002:00000288 00000008H .CRT$XCZ                DATA
 0002:00000290 00000008H .CRT$XIA                DATA
 0002:00000298 00000018H .CRT$XIC                DATA
 0002:000002b0 00000008H .CRT$XIZ                DATA
 0002:000002b8 00000008H .CRT$XPA                DATA
 0002:000002c0 00000010H .CRT$XPX                DATA
 0002:000002d0 00000008H .CRT$XPXA               DATA
 0002:000002d8 00000008H .CRT$XPZ                DATA
 0002:000002e0 00000008H .CRT$XTA                DATA
 0002:000002e8 00000008H .CRT$XTZ                DATA
 0002:000002f0 00000000H .gfids$y                DATA
 0002:000002f0 00009438H .rdata                  DATA
 0002:00009728 0000037cH .rdata$r                DATA
 0002:00009aa4 000003ccH .rdata$zzzdbg           DATA
 0002:00009e70 00000008H .rtc$IAA                DATA
 0002:00009e78 00000008H .rtc$IZZ                DATA
 0002:00009e80 00000008H .rtc$TAA                DATA
 0002:00009e88 00000008H .rtc$TZZ                DATA
 0002:00009e90 00001ed0H .xdata                  DATA
 0002:0000bd60 000001dcH .xdata$x                DATA
 0002:0000bf3c 00000020H .didat$2                DATA
 0002:0000bf5c 00000024H .didat$3                DATA
 0002:0000bf80 00000160H .didat$4                DATA
 0002:0000c0e0 00000b10H .didat$6                DATA
 0002:0000cbf0 00000160H .didat$7                DATA
 0002:0000cd50 00000050H .edata                  DATA
 0002:0000cda0 00000014H .idata$2                DATA
 0002:0000cdb4 00000014H .idata$3                DATA
 0002:0000cdc8 00000268H .idata$4                DATA
 0002:0000d030 0000059cH .idata$6                DATA
 0003:00000000 00000a30H .data                   DATA
 0003:00000a30 00000118H .data$r                 DATA
 0003:00000b48 00000168H .didat$5                DATA
 0003:00000cb0 00001230H .bss                    DATA
 0004:00000000 00001a34H .pdata                  DATA
 0005:00000000 00000060H .rsrc$01                DATA
 0005:00000060 00000180H .rsrc$02                DATA

  Address         Publics by Value              Rva+Base               Lib:Object

 0000:00000000       __dynamic_value_reloc_table 0000000000000000     <absolute>
 0000:00000000       __guard_iat_count          0000000000000000     <absolute>
 0000:00000000       __hybrid_code_map          0000000000000000     <absolute>
 0000:00000000       __hybrid_code_map_count    0000000000000000     <absolute>
 0000:00000000       __guard_iat_table          0000000000000000     <absolute>
 0000:00000000       __hybrid_auxiliary_iat     0000000000000000     <absolute>
 0000:00000000       __guard_longjmp_table      0000000000000000     <absolute>
 0000:00000000       __guard_longjmp_count      0000000000000000     <absolute>
 0000:00000000       __guard_fids_count         0000000000000000     <absolute>
 0000:00000000       __enclave_config           0000000000000000     <absolute>
 0000:00000000       ___safe_se_handler_table   0000000000000000     <absolute>
 0000:00000000       ___safe_se_handler_count   0000000000000000     <absolute>
 0000:00000000       __guard_fids_table         0000000000000000     <absolute>
 0000:00000100       __guard_flags              0000000000000100     <absolute>
 0000:00000000       __ImageBase                0000000180000000     <linker-defined>
 0001:00000000       ??1EscapableHandleScope@Nan@@QEAA@XZ 0000000180001000 f i scrypt_common.obj
 0001:00000000       ??1HandleScope@Nan@@QEAA@XZ 0000000180001000 f i scrypt_params_async.obj
 0001:00000390       ?ScryptError@NodeScrypt@@YA?AV?$Local@VValue@v8@@@v8@@I@Z 0000000180001390 f   scrypt_common.obj
 0001:00000480       ??1?$basic_string@DU?$char_traits@D@std@@V?$allocator@D@2@@std@@QEAA@XZ 0000000180001480 f i scrypt_common.obj
 0001:000004e0       ??0?$basic_string@DU?$char_traits@D@std@@V?$allocator@D@2@@std@@QEAA@QEBD@Z 00000001800014e0 f i scrypt_common.obj
 0001:000007d0       ?_Xlen@?$basic_string@DU?$char_traits@D@std@@V?$allocator@D@2@@std@@SAXXZ 00000001800017d0 f i scrypt_common.obj
 0001:00000950       ?Call@Callback@Nan@@QEBA?AV?$Local@VValue@v8@@@v8@@HQEAV34@@Z 0000000180001950 f i scrypt_params_async.obj
 0001:00000a60       ??1AsyncWorker@Nan@@UEAA@XZ 0000000180001a60 f i scrypt_params_async.obj
 0001:00000b10       ?WorkComplete@AsyncWorker@Nan@@UEAAXXZ 0000000180001b10 f i scrypt_params_async.obj
 0001:00000bb0       ?Destroy@AsyncWorker@Nan@@UEAAXXZ 0000000180001bb0 f i scrypt_params_async.obj
 0001:00000bd0       ?HandleOKCallback@AsyncWorker@Nan@@MEAAXXZ 0000000180001bd0 f i scrypt_params_async.obj
 0001:00000c20       ?HandleErrorCallback@AsyncWorker@Nan@@MEAAXXZ 0000000180001c20 f i scrypt_params_async.obj
 0001:00000cd0       ??_EAsyncWorker@Nan@@UEAAPEAXI@Z 0000000180001cd0 f i * CIL library *:* CIL module *
 0001:00000cd0       ??_GAsyncWorker@Nan@@UEAAPEAXI@Z 0000000180001cd0 f i scrypt_params_async.obj
 0001:00000d10       ??1?$Persistent@VObject@v8@@V?$NonCopyablePersistentTraits@VObject@v8@@@2@@Nan@@QEAA@XZ 0000000180001d10 f i scrypt_params_async.obj
 0001:00000d30       ?AsyncExecute@Nan@@YAXPEAUuv_work_s@@@Z 0000000180001d30 f i scrypt_params_async.obj
 0001:00000d40       ?AsyncExecuteComplete@Nan@@YAXPEAUuv_work_s@@@Z 0000000180001d40 f i scrypt_params_async.obj
 0001:00000d80       ??0ScryptAsyncWorker@@QEAA@PEAVCallback@Nan@@@Z 0000000180001d80 f i scrypt_params_async.obj
 0001:00000e60       ?HandleErrorCallback@ScryptAsyncWorker@@UEAAXXZ 0000000180001e60 f i scrypt_params_async.obj
 0001:00000ed0       ?WorkComplete@ScryptAsyncWorker@@UEAAXXZ 0000000180001ed0 f i scrypt_params_async.obj
 0001:00000fc0       ??_GScryptAsyncWorker@@UEAAPEAXI@Z 0000000180001fc0 f i scrypt_params_async.obj
 0001:00000fc0       ??_EScryptAsyncWorker@@UEAAPEAXI@Z 0000000180001fc0 f i * CIL library *:* CIL module *
 0001:00001000       ??1ScryptAsyncWorker@@UEAA@XZ 0000000180002000 f i scrypt_params_async.obj
 0001:00001010       ??_EScryptKDFAsyncWorker@@UEAAPEAXI@Z 0000000180002010 f i * CIL library *:* CIL module *
 0001:00001010       ??_EScryptParamsAsyncWorker@@UEAAPEAXI@Z 0000000180002010 f i * CIL library *:* CIL module *
 0001:00001010       ??_GScryptParamsAsyncWorker@@UEAAPEAXI@Z 0000000180002010 f i scrypt_params_async.obj
 0001:00001010       ??_GScryptKDFAsyncWorker@@UEAAPEAXI@Z 0000000180002010 f i scrypt_kdf_async.obj
 0001:00001050       ?Execute@ScryptParamsAsyncWorker@@UEAAXXZ 0000000180002050 f   scrypt_params_async.obj
 0001:00001130       ?HandleOKCallback@ScryptParamsAsyncWorker@@UEAAXXZ 0000000180002130 f   scrypt_params_async.obj
 0001:00001400       ?params@@YAXAEBV?$FunctionCallbackInfo@VValue@v8@@@Nan@@@Z 0000000180002400 f   scrypt_params_async.obj
 0001:00001580       ?paramsSync@@YAXAEBV?$FunctionCallbackInfo@VValue@v8@@@Nan@@@Z 0000000180002580 f   scrypt_params_sync.obj
 0001:00001990       ?SaveToPersistent@AsyncWorker@Nan@@QEAAXPEBDAEBV?$Local@VValue@v8@@@v8@@@Z 0000000180002990 f i scrypt_kdf_async.obj
 0001:00001a50       ?GetFromPersistent@AsyncWorker@Nan@@QEBA?AV?$Local@VValue@v8@@@v8@@PEBD@Z 0000000180002a50 f i scrypt_kdf_async.obj
 0001:00001b30       ??0Params@NodeScrypt@@QEAA@AEBV?$Local@VObject@v8@@@v8@@@Z 0000000180002b30 f i scrypt_kdf_async.obj
 0001:00001c50       ??0ScryptKDFAsyncWorker@@QEAA@AEBV?$FunctionCallbackInfo@VValue@v8@@@Nan@@@Z 0000000180002c50 f i scrypt_kdf_async.obj
 0001:00001f80       ?Execute@ScryptKDFAsyncWorker@@UEAAXXZ 0000000180002f80 f   scrypt_kdf_async.obj
 0001:00001fe0       ?HandleOKCallback@ScryptKDFAsyncWorker@@UEAAXXZ 0000000180002fe0 f   scrypt_kdf_async.obj
 0001:000020c0       ?kdf@@YAXAEBV?$FunctionCallbackInfo@VValue@v8@@@Nan@@@Z 00000001800030c0 f   scrypt_kdf_async.obj
 0001:00002120       ?kdfSync@@YAXAEBV?$FunctionCallbackInfo@VValue@v8@@@Nan@@@Z 0000000180003120 f   scrypt_kdf_sync.obj
 0001:000022a0       ?kdfVerifySync@@YAXAEBV?$FunctionCallbackInfo@VValue@v8@@@Nan@@@Z 00000001800032a0 f   scrypt_kdf-verify_sync.obj
 0001:000023b0       ??0ScryptKDFVerifyAsyncWorker@@QEAA@AEBV?$FunctionCallbackInfo@VValue@v8@@@Nan@@@Z 00000001800033b0 f i scrypt_kdf-verify_async.obj
 0001:000025e0       ??_EScryptKDFVerifyAsyncWorker@@UEAAPEAXI@Z 00000001800035e0 f i * CIL library *:* CIL module *
 0001:000025e0       ??_GScryptKDFVerifyAsyncWorker@@UEAAPEAXI@Z 00000001800035e0 f i scrypt_kdf-verify_async.obj
 0001:00002620       ?Execute@ScryptKDFVerifyAsyncWorker@@UEAAXXZ 0000000180003620 f   scrypt_kdf-verify_async.obj
 0001:00002670       ?HandleOKCallback@ScryptKDFVerifyAsyncWorker@@UEAAXXZ 0000000180003670 f   scrypt_kdf-verify_async.obj
 0001:00002700       ?kdfVerify@@YAXAEBV?$FunctionCallbackInfo@VValue@v8@@@Nan@@@Z 0000000180003700 f   scrypt_kdf-verify_async.obj
 0001:00002760       ?hashSync@@YAXAEBV?$FunctionCallbackInfo@VValue@v8@@@Nan@@@Z 0000000180003760 f   scrypt_hash_sync.obj
 0001:00002990       ??0ScryptHashAsyncWorker@@QEAA@AEBV?$FunctionCallbackInfo@VValue@v8@@@Nan@@@Z 0000000180003990 f i scrypt_hash_async.obj
 0001:00002d30       ??_GScryptHashAsyncWorker@@UEAAPEAXI@Z 0000000180003d30 f i scrypt_hash_async.obj
 0001:00002d30       ??_EScryptHashAsyncWorker@@UEAAPEAXI@Z 0000000180003d30 f i * CIL library *:* CIL module *
 0001:00002d70       ?Execute@ScryptHashAsyncWorker@@UEAAXXZ 0000000180003d70 f   scrypt_hash_async.obj
 0001:00002e10       ?HandleOKCallback@ScryptHashAsyncWorker@@UEAAXXZ 0000000180003e10 f   scrypt_hash_async.obj
 0001:00002ef0       ?hash@@YAXAEBV?$FunctionCallbackInfo@VValue@v8@@@Nan@@@Z 0000000180003ef0 f   scrypt_hash_async.obj
 0001:00003020       ?InitAll@@YAXV?$Local@VObject@v8@@@v8@@@Z 0000000180004020 f   scrypt_node.obj
 0001:000037d0       ??$New@VFunctionTemplate@v8@@@Nan@@YA?AV?$Local@VFunctionTemplate@v8@@@v8@@P6AXAEBV?$FunctionCallbackInfo@VValue@v8@@@0@@ZV?$Local@VValue@v8@@@2@@Z 00000001800047d0 f i scrypt_node.obj
 0001:000039c0       pickparams                 00000001800049c0 f   scrypt_wrapper:pickparams.obj
 0001:00003b40       KDF                        0000000180004b40 f   scrypt_wrapper:keyderivation.obj
 0001:00003d40       Verify                     0000000180004d40 f   scrypt_wrapper:keyderivation.obj
 0001:00003f50       scryptenc_cpuperf          0000000180004f50 f   scrypt_lib:scryptenc_cpuperf.obj
 0001:000060b0       libcperciva_SHA256_Update  00000001800070b0 f   scrypt_lib:sha256.obj
 0001:00006180       libcperciva_SHA256_Final   0000000180007180 f   scrypt_lib:sha256.obj
 0001:000062a0       libcperciva_HMAC_SHA256_Init 00000001800072a0 f   scrypt_lib:sha256.obj
 0001:00006690       libcperciva_HMAC_SHA256_Final 0000000180007690 f   scrypt_lib:sha256.obj
 0001:000067c0       PBKDF2_SHA256              00000001800077c0 f   scrypt_lib:sha256.obj
 0001:00006c70       crypto_scrypt              0000000180007c70 f   scrypt_lib:crypto_scrypt.obj
 0001:00006e30       __local_stdio_printf_options 0000000180007e30 f i scrypt_lib:warnp.obj
 0001:00006e40       fprintf                    0000000180007e40 f i scrypt_lib:warnp.obj
 0001:00006e90       libcperciva_warnx          0000000180007e90 f   scrypt_lib:warnp.obj
 0001:000075d0       crypto_scrypt_smix         00000001800085d0 f   scrypt_lib:crypto_scrypt_smix.obj
 0001:0000787e       __imp_load_?GetCurrent@Isolate@v8@@SAPEAV12@XZ 000000018000887e f   node:node.exe
 0001:0000788a       __tailMerge_node_exe       000000018000888a     node:node.exe
 0001:00007903       __imp_load_??1HandleScope@v8@@QEAA@XZ 0000000180008903 f   node:node.exe
 0001:0000790f       __imp_load_?Error@Exception@v8@@SA?AV?$Local@VValue@v8@@@2@V?$Local@VString@v8@@@2@@Z 000000018000890f f   node:node.exe
 0001:0000791b       __imp_load_?ToLocalEmpty@V8@v8@@CAXXZ 000000018000891b f   node:node.exe
 0001:00007927       __imp_load_?Escape@EscapableHandleScope@v8@@AEAAPEAPEAVObject@internal@2@PEAPEAV342@@Z 0000000180008927 f   node:node.exe
 0001:00007933       __imp_load_??0EscapableHandleScope@v8@@QEAA@PEAVIsolate@1@@Z 0000000180008933 f   node:node.exe
 0001:0000793f       __imp_load_?NewFromUtf8@String@v8@@SA?AV?$MaybeLocal@VString@v8@@@2@PEAVIsolate@2@PEBDW4NewStringType@2@H@Z 000000018000893f f   node:node.exe
 0001:0000794b       __imp_load_??1EscapableHandleScope@v8@@QEAA@XZ 000000018000894b f   node:node.exe
 0001:00007957       __imp_load_uv_queue_work   0000000180008957 f   node:node.exe
 0001:00007963       __imp_load_?Global@Context@v8@@QEAA?AV?$Local@VObject@v8@@@2@XZ 0000000180008963 f   node:node.exe
 0001:0000796f       __imp_load_?NewFromUnsigned@Integer@v8@@SA?AV?$Local@VInteger@v8@@@2@PEAVIsolate@2@I@Z 000000018000896f f   node:node.exe
 0001:0000797b       __imp_load_?New@Integer@v8@@SA?AV?$Local@VInteger@v8@@@2@PEAVIsolate@2@H@Z 000000018000897b f   node:node.exe
 0001:00007987       __imp_load_?GetCurrentContext@Isolate@v8@@QEAA?AV?$Local@VContext@v8@@@2@XZ 0000000180008987 f   node:node.exe
 0001:00007993       __imp_load_?CreateHandle@HandleScope@v8@@KAPEAPEAVObject@internal@2@PEAVIsolate@42@PEAV342@@Z 0000000180008993 f   node:node.exe
 0001:0000799f       __imp_load_??0HandleScope@v8@@QEAA@PEAVIsolate@1@@Z 000000018000899f f   node:node.exe
 0001:000079ab       __imp_load_?DisposeGlobal@V8@v8@@CAXPEAPEAVObject@internal@2@@Z 00000001800089ab f   node:node.exe
 0001:000079b7       __imp_load_?GlobalizeReference@V8@v8@@CAPEAPEAVObject@internal@2@PEAVIsolate@42@PEAPEAV342@@Z 00000001800089b7 f   node:node.exe
 0001:000079c3       __imp_load_?IntegerValue@Value@v8@@QEBA_JXZ 00000001800089c3 f   node:node.exe
 0001:000079cf       __imp_load_?NumberValue@Value@v8@@QEBANXZ 00000001800089cf f   node:node.exe
 0001:000079db       __imp_load_?ToInteger@Value@v8@@QEBA?AV?$MaybeLocal@VInteger@v8@@@2@V?$Local@VContext@v8@@@2@@Z 00000001800089db f   node:node.exe
 0001:000079e7       __imp_load_?New@Object@v8@@SA?AV?$Local@VObject@v8@@@2@PEAVIsolate@2@@Z 00000001800089e7 f   node:node.exe
 0001:000079f3       __imp_load_?Set@Object@v8@@QEAA_NV?$Local@VValue@v8@@@2@0@Z 00000001800089f3 f   node:node.exe
 0001:000079ff       __imp_load_?MakeCallback@node@@YA?AV?$Local@VValue@v8@@@v8@@PEAVIsolate@3@V?$Local@VObject@v8@@@3@V?$Local@VFunction@v8@@@3@HPEAV23@@Z 00000001800089ff f   node:node.exe
 0001:00007a0b       __imp_load_uv_default_loop 0000000180008a0b f   node:node.exe
 0001:00007a17       __imp_load_?ThrowException@Isolate@v8@@QEAA?AV?$Local@VValue@v8@@@2@V32@@Z 0000000180008a17 f   node:node.exe
 0001:00007a23       __imp_load_?Uint32Value@Value@v8@@QEBAIXZ 0000000180008a23 f   node:node.exe
 0001:00007a2f       __imp_load_?Get@Object@v8@@QEAA?AV?$Local@VValue@v8@@@2@V32@@Z 0000000180008a2f f   node:node.exe
 0001:00007a3b       __imp_load_?New@Buffer@node@@YA?AV?$MaybeLocal@VObject@v8@@@v8@@PEAVIsolate@4@_K@Z 0000000180008a3b f   node:node.exe
 0001:00007a47       __imp_load_?Data@Buffer@node@@YAPEADV?$Local@VValue@v8@@@v8@@@Z 0000000180008a47 f   node:node.exe
 0001:00007a53       __imp_load_?Length@Buffer@node@@YA_KV?$Local@VValue@v8@@@v8@@@Z 0000000180008a53 f   node:node.exe
 0001:00007a5f       __imp_load_?ToObject@Value@v8@@QEBA?AV?$Local@VObject@v8@@@2@XZ 0000000180008a5f f   node:node.exe
 0001:00007a6b       __imp_load_?Value@External@v8@@QEBAPEAXXZ 0000000180008a6b f   node:node.exe
 0001:00007a77       __imp_load_?New@External@v8@@SA?AV?$Local@VExternal@v8@@@2@PEAVIsolate@2@PEAX@Z 0000000180008a77 f   node:node.exe
 0001:00007a83       __imp_load_?CreateHandle@HandleScope@v8@@CAPEAPEAVObject@internal@2@PEAVHeapObject@42@PEAV342@@Z 0000000180008a83 f   node:node.exe
 0001:00007a8f       __imp_load_?GetFunction@FunctionTemplate@v8@@QEAA?AV?$MaybeLocal@VFunction@v8@@@2@V?$Local@VContext@v8@@@2@@Z 0000000180008a8f f   node:node.exe
 0001:00007a9b       __imp_load_?New@FunctionTemplate@v8@@SA?AV?$Local@VFunctionTemplate@v8@@@2@PEAVIsolate@2@P6AXAEBV?$FunctionCallbackInfo@VValue@v8@@@2@@ZV?$Local@VValue@v8@@@2@V?$Local@VSignature@v8@@@2@HW4ConstructorBehavior@2@@Z 0000000180008a9b f   node:node.exe
 0001:00007aa7       __imp_load_?SlowGetInternalField@Object@v8@@AEAA?AV?$Local@VValue@v8@@@2@H@Z 0000000180008aa7 f   node:node.exe
 0001:00007ab3       __imp_load_?SetInternalField@Object@v8@@QEAAXHV?$Local@VValue@v8@@@2@@Z 0000000180008ab3 f   node:node.exe
 0001:00007abf       __imp_load_?Set@Object@v8@@QEAA?AV?$Maybe@_N@2@V?$Local@VContext@v8@@@2@V?$Local@VValue@v8@@@2@1@Z 0000000180008abf f   node:node.exe
 0001:00007acb       __imp_load_?SetInternalFieldCount@ObjectTemplate@v8@@QEAAXH@Z 0000000180008acb f   node:node.exe
 0001:00007ad7       __imp_load_?NewInstance@ObjectTemplate@v8@@QEAA?AV?$MaybeLocal@VObject@v8@@@2@V?$Local@VContext@v8@@@2@@Z 0000000180008ad7 f   node:node.exe
 0001:00007ae3       __imp_load_?New@ObjectTemplate@v8@@SA?AV?$Local@VObjectTemplate@v8@@@2@PEAVIsolate@2@V?$Local@VFunctionTemplate@v8@@@2@@Z 0000000180008ae3 f   node:node.exe
 0001:00007aef       __imp_load_node_module_register 0000000180008aef f   node:node.exe
 0001:00007afc       ??0bad_alloc@std@@QEAA@AEBV01@@Z 0000000180008afc f i libcpmt:xthrow.obj
 0001:00007b3c       ??0bad_alloc@std@@QEAA@XZ  0000000180008b3c f i libcpmt:xthrow.obj
 0001:00007b5c       ??0exception@std@@QEAA@AEBV01@@Z 0000000180008b5c f i libcpmt:xthrow.obj
 0001:00007b94       ??0length_error@std@@QEAA@AEBV01@@Z 0000000180008b94 f i libcpmt:xthrow.obj
 0001:00007bd4       ??0length_error@std@@QEAA@PEBD@Z 0000000180008bd4 f i libcpmt:xthrow.obj
 0001:00007c20       ??0logic_error@std@@QEAA@AEBV01@@Z 0000000180008c20 f i libcpmt:xthrow.obj
 0001:00007c60       ??1bad_exception@std@@UEAA@XZ 0000000180008c60 f i libvcruntime:frame.obj
 0001:00007c60       ??1length_error@std@@UEAA@XZ 0000000180008c60 f i libcpmt:xthrow.obj
 0001:00007c60       ??1bad_alloc@std@@UEAA@XZ  0000000180008c60 f i libcpmt:xthrow.obj
 0001:00007c60       ??1bad_array_new_length@std@@UEAA@XZ 0000000180008c60 f i LIBCMT:throw_bad_alloc.obj
 0001:00007c74       ??_Gbad_array_new_length@std@@UEAAPEAXI@Z 0000000180008c74 f i LIBCMT:throw_bad_alloc.obj
 0001:00007c74       ??_Ebad_array_new_length@std@@UEAAPEAXI@Z 0000000180008c74 f i LIBCMT:throw_bad_alloc.obj
 0001:00007c74       ??_Elogic_error@std@@UEAAPEAXI@Z 0000000180008c74 f i libcpmt:xthrow.obj
 0001:00007c74       ??_Ebad_alloc@std@@UEAAPEAXI@Z 0000000180008c74 f i libcpmt:xthrow.obj
 0001:00007c74       ??_Glogic_error@std@@UEAAPEAXI@Z 0000000180008c74 f i libcpmt:xthrow.obj
 0001:00007c74       ??_Elength_error@std@@UEAAPEAXI@Z 0000000180008c74 f i libcpmt:xthrow.obj
 0001:00007c74       ??_Ebad_exception@std@@UEAAPEAXI@Z 0000000180008c74 f i libvcruntime:frame.obj
 0001:00007c74       ??_Glength_error@std@@UEAAPEAXI@Z 0000000180008c74 f i libcpmt:xthrow.obj
 0001:00007c74       ??_Gbad_alloc@std@@UEAAPEAXI@Z 0000000180008c74 f i libcpmt:xthrow.obj
 0001:00007c74       ??_Eexception@std@@UEAAPEAXI@Z 0000000180008c74 f i libcpmt:xthrow.obj
 0001:00007c74       ??_Gexception@std@@UEAAPEAXI@Z 0000000180008c74 f i libcpmt:xthrow.obj
 0001:00007c74       ??_Gbad_exception@std@@UEAAPEAXI@Z 0000000180008c74 f i libvcruntime:frame.obj
 0001:00007cb8       ?_Xlength_error@std@@YAXPEBD@Z 0000000180008cb8 f   libcpmt:xthrow.obj
 0001:00007cdc       ?what@exception@std@@UEBAPEBDXZ 0000000180008cdc f i libcpmt:xthrow.obj
 0001:00007d00       __security_check_cookie    0000000180008d00 f   LIBCMT:_amdsecgs_.obj
 0001:00007d24       ??2@YAPEAX_K@Z             0000000180008d24 f   LIBCMT:new_scalar.obj
 0001:00007d60       ??3@YAXPEAX_K@Z            0000000180008d60 f   LIBCMT:delete_scalar_size.obj
 0001:00007d60       ??_V@YAXPEAX@Z             0000000180008d60 f   LIBCMT:delete_array.obj
 0001:00008088       _DllMainCRTStartup         0000000180009088 f   LIBCMT:dll_dllmain.obj
 0001:000080c8       __scrt_acquire_startup_lock 00000001800090c8 f   LIBCMT:utility.obj
 0001:00008104       __scrt_dllmain_after_initialize_c 0000000180009104 f   LIBCMT:utility.obj
 0001:00008138       __scrt_dllmain_before_initialize_c 0000000180009138 f   LIBCMT:utility.obj
 0001:00008150       __scrt_dllmain_crt_thread_attach 0000000180009150 f   LIBCMT:utility.obj
 0001:00008178       __scrt_dllmain_crt_thread_detach 0000000180009178 f   LIBCMT:utility.obj
 0001:00008190       __scrt_dllmain_exception_filter 0000000180009190 f   LIBCMT:utility.obj
 0001:000081f0       __scrt_dllmain_uninitialize_c 00000001800091f0 f   LIBCMT:utility.obj
 0001:00008220       __scrt_dllmain_uninitialize_critical 0000000180009220 f   LIBCMT:utility.obj
 0001:00008234       __scrt_initialize_crt      0000000180009234 f   LIBCMT:utility.obj
 0001:00008280       __scrt_initialize_onexit_tables 0000000180009280 f   LIBCMT:utility.obj
 0001:0000835c       __scrt_is_nonwritable_in_current_image 000000018000935c f   LIBCMT:utility.obj
 0001:000083f8       __scrt_release_startup_lock 00000001800093f8 f   LIBCMT:utility.obj
 0001:0000841c       __scrt_uninitialize_crt    000000018000941c f   LIBCMT:utility.obj
 0001:00008448       ??_Etype_info@@UEAAPEAXI@Z 0000000180009448 f i LIBCMT:std_type_info_static.obj
 0001:00008448       ??_Gtype_info@@UEAAPEAXI@Z 0000000180009448 f i LIBCMT:std_type_info_static.obj
 0001:00008474       __raise_securityfailure    0000000180009474 f   LIBCMT:gs_report.obj
 0001:000084a8       __report_gsfailure         00000001800094a8 f   LIBCMT:gs_report.obj
 0001:0000857c       __report_rangecheckfailure 000000018000957c f   LIBCMT:gs_report.obj
 0001:00008590       __report_securityfailure   0000000180009590 f   LIBCMT:gs_report.obj
 0001:00008710       ??0bad_array_new_length@std@@QEAA@AEBV01@@Z 0000000180009710 f i LIBCMT:throw_bad_alloc.obj
 0001:00008750       ??0bad_array_new_length@std@@QEAA@XZ 0000000180009750 f i LIBCMT:throw_bad_alloc.obj
 0001:00008770       ?__scrt_throw_std_bad_alloc@@YAXXZ 0000000180009770 f   LIBCMT:throw_bad_alloc.obj
 0001:00008790       ?__scrt_throw_std_bad_array_new_length@@YAXXZ 0000000180009790 f   LIBCMT:throw_bad_alloc.obj
 0001:000087b0       ??3@YAXPEAX@Z              00000001800097b0 f   LIBCMT:delete_scalar.obj
 0001:000087b8       __security_init_cookie     00000001800097b8 f   LIBCMT:gs_support.obj
 0001:00008868       DllMain                    0000000180009868 f   LIBCMT:dll_dllmain_stub.obj
 0001:00008868       _get_startup_argv_mode     0000000180009868 f   LIBCMT:argv_mode.obj
 0001:00008870       ?__scrt_initialize_type_info@@YAXXZ 0000000180009870 f   LIBCMT:tncleanup.obj
 0001:00008880       ?__scrt_uninitialize_type_info@@YAXXZ 0000000180009880 f   LIBCMT:tncleanup.obj
 0001:0000888c       __local_stdio_scanf_options 000000018000988c f i LIBCMT:default_local_stdio_options.obj
 0001:00008894       __scrt_initialize_default_local_stdio_options 0000000180009894 f   LIBCMT:default_local_stdio_options.obj
 0001:000088b0       __scrt_get_dyn_tls_init_callback 00000001800098b0 f   LIBCMT:dyn_tls_init.obj
 0001:000088b8       __crt_debugger_hook        00000001800098b8 f   LIBCMT:utility_desktop.obj
 0001:000088c0       __scrt_fastfail            00000001800098c0 f   LIBCMT:utility_desktop.obj
 0001:00008a0c       _RTC_Initialize            0000000180009a0c f   LIBCMT:_initsect_.obj
 0001:00008a48       _RTC_Terminate             0000000180009a48 f   LIBCMT:_initsect_.obj
 0001:00008a84       _guard_check_icall_nop     0000000180009a84 f i LIBCMT:guard_support.obj
 0001:00008a88       __isa_available_init       0000000180009a88 f   LIBCMT:_cpu_disp_.obj
 0001:00008c44       __scrt_is_ucrt_dll_in_use  0000000180009c44 f   LIBCMT:ucrt_detection.obj
 0001:00008c50       ?_ExecutionInCatch@@YAHPEAU_xDISPATCHER_CONTEXT@@PEBU_s_FuncInfo@@@Z 0000000180009c50 f   libvcruntime:risctrnsctrl.obj
 0001:00008cc4       ?_GetEstablisherFrame@@YAPEA_KPEA_KPEAU_xDISPATCHER_CONTEXT@@PEBU_s_FuncInfo@@0@Z 0000000180009cc4 f   libvcruntime:risctrnsctrl.obj
 0001:00008d90       ?_GetRangeOfTrysToCheck@@YAPEBU_s_TryBlockMapEntry@@PEA_KPEBU_s_FuncInfo@@HHPEAI2PEAU_xDISPATCHER_CONTEXT@@@Z 0000000180009d90 f   libvcruntime:risctrnsctrl.obj
 0001:00008ebc       ?__FrameUnwindToEmptyState@@YAXPEA_KPEAU_xDISPATCHER_CONTEXT@@PEBU_s_FuncInfo@@@Z 0000000180009ebc f   libvcruntime:risctrnsctrl.obj
 0001:00008f50       _CallSETranslator          0000000180009f50 f   libvcruntime:risctrnsctrl.obj
 0001:00008fa4       _CreateFrameInfo           0000000180009fa4 f   libvcruntime:risctrnsctrl.obj
 0001:00008fe0       _FindAndUnlinkFrame        0000000180009fe0 f   libvcruntime:risctrnsctrl.obj
 0001:00009034       _GetImageBase              000000018000a034 f   libvcruntime:risctrnsctrl.obj
 0001:00009048       _GetThrowImageBase         000000018000a048 f   libvcruntime:risctrnsctrl.obj
 0001:0000905c       _SetImageBase              000000018000a05c f   libvcruntime:risctrnsctrl.obj
 0001:00009074       _SetThrowImageBase         000000018000a074 f   libvcruntime:risctrnsctrl.obj
 0001:0000908c       _UnwindNestedFrames        000000018000a08c f   libvcruntime:risctrnsctrl.obj
 0001:000091b0       __CxxFrameHandler3         000000018000a1b0 f   libvcruntime:risctrnsctrl.obj
 0001:00009230       __DestructExceptionObject  000000018000a230 f   libvcruntime:ehhelpers.obj
 0001:000092a4       ?_CallMemberFunction0@@YAXQEAX0@Z 000000018000a2a4 f i libvcruntime:ehhelpers.obj
 0001:000092a8       _IsExceptionObjectToBeDestroyed 000000018000a2a8 f   libvcruntime:ehhelpers.obj
 0001:000092d8       __AdjustPointer            000000018000a2d8 f   libvcruntime:ehhelpers.obj
 0001:000092fc       __FrameUnwindFilter        000000018000a2fc f   libvcruntime:ehhelpers.obj
 0001:00009348       __std_terminate            000000018000a348 f   libvcruntime:ehhelpers.obj
 0001:00009354       _purecall                  000000018000a354 f   libvcruntime:purevirt.obj
 0001:00009384       __std_exception_copy       000000018000a384 f   libvcruntime:std_exception.obj
 0001:00009414       __std_exception_destroy    000000018000a414 f   libvcruntime:std_exception.obj
 0001:0000943c       _CxxThrowException         000000018000a43c f   libvcruntime:throw.obj
 0001:000094fc       __C_specific_handler       000000018000a4fc f   libvcruntime:_riscchandler_.obj
 0001:00009708       __vcrt_initialize          000000018000a708 f   libvcruntime:initialization.obj
 0001:0000973c       __vcrt_thread_attach       000000018000a73c f   libvcruntime:initialization.obj
 0001:00009750       __vcrt_thread_detach       000000018000a750 f   libvcruntime:initialization.obj
 0001:00009764       __vcrt_uninitialize        000000018000a764 f   libvcruntime:initialization.obj
 0001:00009784       __vcrt_uninitialize_critical 000000018000a784 f   libvcruntime:initialization.obj
 0001:00009794       __std_type_info_compare    000000018000a794 f   libvcruntime:std_type_info.obj
 0001:000097bc       __std_type_info_destroy_list 000000018000a7bc f   libvcruntime:std_type_info.obj
 0001:00009800       memset                     000000018000a800 f   libvcruntime:memset.obj
 0001:000099b0       __vcrt_freefls             000000018000a9b0 f   libvcruntime:per_thread_data.obj
 0001:000099d0       __vcrt_freeptd             000000018000a9d0 f   libvcruntime:per_thread_data.obj
 0001:00009a20       __vcrt_getptd              000000018000aa20 f   libvcruntime:per_thread_data.obj
 0001:00009a3c       __vcrt_getptd_noexit       000000018000aa3c f   libvcruntime:per_thread_data.obj
 0001:00009af4       __vcrt_initialize_ptd      000000018000aaf4 f   libvcruntime:per_thread_data.obj
 0001:00009b44       __vcrt_uninitialize_ptd    000000018000ab44 f   libvcruntime:per_thread_data.obj
 0001:00009b68       ?__GetCurrentState@@YAHPEA_KPEAU_xDISPATCHER_CONTEXT@@PEBU_s_FuncInfo@@@Z 000000018000ab68 f   libvcruntime:riscehstate.obj
 0001:00009b90       ?__GetUnwindTryBlock@@YAHPEA_KPEAU_xDISPATCHER_CONTEXT@@PEBU_s_FuncInfo@@@Z 000000018000ab90 f   libvcruntime:riscehstate.obj
 0001:00009bbc       ?__SetState@@YAXPEA_KPEAU_xDISPATCHER_CONTEXT@@PEBU_s_FuncInfo@@H@Z 000000018000abbc f   libvcruntime:riscehstate.obj
 0001:00009bc8       ?__SetUnwindTryBlock@@YAXPEA_KPEAU_xDISPATCHER_CONTEXT@@PEBU_s_FuncInfo@@H@Z 000000018000abc8 f   libvcruntime:riscehstate.obj
 0001:00009c04       ?__StateFromControlPc@@YAHPEBU_s_FuncInfo@@PEAU_xDISPATCHER_CONTEXT@@@Z 000000018000ac04 f   libvcruntime:riscehstate.obj
 0001:00009c0c       ?__StateFromIp@@YAHPEBU_s_FuncInfo@@PEAU_xDISPATCHER_CONTEXT@@_K@Z 000000018000ac0c f   libvcruntime:riscehstate.obj
 0001:00009c74       ??0bad_exception@std@@QEAA@AEBV01@@Z 000000018000ac74 f i libvcruntime:frame.obj
 0001:00009cb4       ??0bad_exception@std@@QEAA@XZ 000000018000acb4 f i libvcruntime:frame.obj
 0001:0000a5fc       ?_CallMemberFunction1@@YAXQEAX00@Z 000000018000b5fc f i libvcruntime:frame.obj
 0001:0000a608       ?_CallMemberFunction2@@YAXQEAX00H@Z 000000018000b608 f i libvcruntime:frame.obj
 0001:0000a618       __BuildCatchObject         000000018000b618 f   libvcruntime:frame.obj
 0001:0000a6d8       __BuildCatchObjectHelper   000000018000b6d8 f   libvcruntime:frame.obj
 0001:0000a8d8       __CxxCallCatchBlock        000000018000b8d8 f   libvcruntime:frame.obj
 0001:0000aac4       __FrameUnwindToState       000000018000bac4 f   libvcruntime:frame.obj
 0001:0000ac58       __InternalCxxFrameHandler  000000018000bc58 f   libvcruntime:frame.obj
 0001:0000ae9c       __TypeMatch                000000018000be9c f   libvcruntime:frame.obj
 0001:0000afe0       __vcrt_initialize_pure_virtual_call_handler 000000018000bfe0 f   libvcruntime:purevirt_data.obj
 0001:0000b000       _local_unwind              000000018000c000 f   libvcruntime:_jmpuwind_.obj
 0001:0000b030       _NLG_Notify                000000018000c030 f   libvcruntime:_jmpuwind_.obj
 0001:0000b050       __NLG_Dispatch2            000000018000c050 f   libvcruntime:_jmpuwind_.obj
 0001:0000b060       __NLG_Return2              000000018000c060 f   libvcruntime:_jmpuwind_.obj
 0001:0000b064       __except_validate_context_record 000000018000c064 f   libvcruntime:jbcxrval.obj
 0001:0000b09c       __vcrt_initialize_locks    000000018000c09c f   libvcruntime:locks.obj
 0001:0000b0e4       __vcrt_uninitialize_locks  000000018000c0e4 f   libvcruntime:locks.obj
 0001:0000b2f4       __vcrt_FlsAlloc            000000018000c2f4 f   libvcruntime:winapi_downlevel.obj
 0001:0000b33c       __vcrt_FlsFree             000000018000c33c f   libvcruntime:winapi_downlevel.obj
 0001:0000b384       __vcrt_FlsGetValue         000000018000c384 f   libvcruntime:winapi_downlevel.obj
 0001:0000b3cc       __vcrt_FlsSetValue         000000018000c3cc f   libvcruntime:winapi_downlevel.obj
 0001:0000b420       __vcrt_InitializeCriticalSectionEx 000000018000c420 f   libvcruntime:winapi_downlevel.obj
 0001:0000b484       __vcrt_initialize_winapi_thunks 000000018000c484 f   libvcruntime:winapi_downlevel.obj
 0001:0000b4b4       __vcrt_uninitialize_winapi_thunks 000000018000c4b4 f   libvcruntime:winapi_downlevel.obj
 0001:0000b510       _CallSettingFrame          000000018000c510 f   libvcruntime:handlers.obj
 0001:0000b560       memmove                    000000018000c560 f   libvcruntime:memcpy.obj
 0001:0000b560       memcpy                     000000018000c560 f   libvcruntime:memcpy.obj
 0001:0000b9a8       strerror                   000000018000c9a8 f   libucrt:strerror.obj
 0001:0000ba50       __acrt_call_reportfault    000000018000ca50 f   libucrt:invalid_parameter.obj
 0001:0000bbac       __acrt_initialize_invalid_parameter_handler 000000018000cbac f   libucrt:invalid_parameter.obj
 0001:0000bbb4       _invalid_parameter         000000018000cbb4 f   libucrt:invalid_parameter.obj
 0001:0000bc64       _invalid_parameter_noinfo  000000018000cc64 f   libucrt:invalid_parameter.obj
 0001:0000bc84       _invalid_parameter_noinfo_noreturn 000000018000cc84 f   libucrt:invalid_parameter.obj
 0001:0000bcb4       _invoke_watson             000000018000ccb4 f   libucrt:invalid_parameter.obj
 0001:0000c6d4       ??$ftprintf@PEAU_iobuf@@PEB_WAEBQEB_WAEBQEB_WAEBI@?$__crt_char_traits@_W@@SAH$$QEAPEAU_iobuf@@$$QEAPEB_WAEBQEB_W2AEBI@Z 000000018000d6d4 f i libucrt:assert.obj
 0001:0000c6fc       _wassert                   000000018000d6fc f   libucrt:assert.obj
 0001:0000c780       fwprintf                   000000018000d780 f i libucrt:assert.obj
 0001:0000c7c4       swprintf                   000000018000d7c4 f i libucrt:assert.obj
 0001:0000c818       ??0_LocaleUpdate@@QEAA@QEAU__crt_locale_pointers@@@Z 000000018000d818 f i libucrt:stricmp.obj
 0001:0000c8b4       ??1_LocaleUpdate@@QEAA@XZ  000000018000d8b4 f i libucrt:stricmp.obj
 0001:0000c8c8       __ascii_stricmp            000000018000d8c8 f   libucrt:stricmp.obj
 0001:0000c908       _stricmp                   000000018000d908 f   libucrt:stricmp.obj
 0001:0000c950       _stricmp_l                 000000018000d950 f   libucrt:stricmp.obj
 0001:0000ca04       __acrt_errno_from_os_error 000000018000da04 f   libucrt:errno.obj
 0001:0000ca4c       __acrt_errno_map_os_error  000000018000da4c f   libucrt:errno.obj
 0001:0000ca9c       __doserrno                 000000018000da9c f   libucrt:errno.obj
 0001:0000cabc       _errno                     000000018000dabc f   libucrt:errno.obj
 0001:0000cadc       abort                      000000018000dadc f   libucrt:abort.obj
 0001:0000cb34       free                       000000018000db34 f   libucrt:free.obj
 0001:0000cb48       malloc                     000000018000db48 f   libucrt:malloc.obj
 0001:0000cb50       __acrt_initialize_stdio    000000018000db50 f   libucrt:_file.obj
 0001:0000cc70       __acrt_iob_func            000000018000dc70 f   libucrt:_file.obj
 0001:0000cc84       __acrt_uninitialize_stdio  000000018000dc84 f   libucrt:_file.obj
 0001:0000cce0       _lock_file                 000000018000dce0 f   libucrt:_file.obj
 0001:0000ccec       _unlock_file               000000018000dcec f   libucrt:_file.obj
 0001:0000cf4c       ??$ensure_buffer_is_big_enough@D@formatting_buffer@__crt_stdio_output@@QEAA_N_K@Z 000000018000df4c f i libucrt:output.obj
 0001:0000cff4       ??$ensure_buffer_is_big_enough@_W@formatting_buffer@__crt_stdio_output@@QEAA_N_K@Z 000000018000dff4 f i libucrt:output.obj
 0001:0000d0a0       ??$is_wide_character_specifier@_W@__crt_stdio_output@@YA_N_K_WW4length_modifier@0@@Z 000000018000e0a0 f i libucrt:output.obj
 0001:0000d0e0       ??$type_case_integer_parse_into_buffer@I@?$output_processor@DV?$stream_output_adapter@D@__crt_stdio_output@@V?$standard_base@DV?$stream_output_adapter@D@__crt_stdio_output@@@2@@__crt_stdio_output@@AEAAXII_N@Z 000000018000e0e0 f i libucrt:output.obj
 0001:0000d170       ??$type_case_integer_parse_into_buffer@I@?$output_processor@_WV?$string_output_adapter@_W@__crt_stdio_output@@V?$standard_base@_WV?$string_output_adapter@_W@__crt_stdio_output@@@2@@__crt_stdio_output@@AEAAXII_N@Z 000000018000e170 f i libucrt:output.obj
 0001:0000d170       ??$type_case_integer_parse_into_buffer@I@?$output_processor@_WV?$stream_output_adapter@_W@__crt_stdio_output@@V?$standard_base@_WV?$stream_output_adapter@_W@__crt_stdio_output@@@2@@__crt_stdio_output@@AEAAXII_N@Z 000000018000e170 f i libucrt:output.obj
 0001:0000d210       ??$type_case_integer_parse_into_buffer@_K@?$output_processor@DV?$stream_output_adapter@D@__crt_stdio_output@@V?$standard_base@DV?$stream_output_adapter@D@__crt_stdio_output@@@2@@__crt_stdio_output@@AEAAX_KI_N@Z 000000018000e210 f i libucrt:output.obj
 0001:0000d2a4       ??$type_case_integer_parse_into_buffer@_K@?$output_processor@_WV?$stream_output_adapter@_W@__crt_stdio_output@@V?$standard_base@_WV?$stream_output_adapter@_W@__crt_stdio_output@@@2@@__crt_stdio_output@@AEAAX_KI_N@Z 000000018000e2a4 f i libucrt:output.obj
 0001:0000d2a4       ??$type_case_integer_parse_into_buffer@_K@?$output_processor@_WV?$string_output_adapter@_W@__crt_stdio_output@@V?$standard_base@_WV?$string_output_adapter@_W@__crt_stdio_output@@@2@@__crt_stdio_output@@AEAAX_KI_N@Z 000000018000e2a4 f i libucrt:output.obj
 0001:0000d348       ??$write_multiple_characters@V?$stream_output_adapter@D@__crt_stdio_output@@D@__crt_stdio_output@@YAXAEBV?$stream_output_adapter@D@0@DHQEAH@Z 000000018000e348 f i libucrt:output.obj
 0001:0000d3d4       ??$write_multiple_characters@V?$stream_output_adapter@_W@__crt_stdio_output@@D@__crt_stdio_output@@YAXAEBV?$stream_output_adapter@_W@0@DHQEAH@Z 000000018000e3d4 f i libucrt:output.obj
 0001:0000d468       ??$write_multiple_characters@V?$string_output_adapter@_W@__crt_stdio_output@@D@__crt_stdio_output@@YAXAEBV?$string_output_adapter@_W@0@DHQEAH@Z 000000018000e468 f i libucrt:output.obj
 0001:0000d748       ?crop_zeroes@__crt_stdio_output@@YAXPEADQEAU__crt_locale_pointers@@@Z 000000018000e748 f i libucrt:output.obj
 0001:0000d7b4       ?force_decimal_point@__crt_stdio_output@@YAXPEADQEAU__crt_locale_pointers@@@Z 000000018000e7b4 f i libucrt:output.obj
 0001:0000d824       ?parse_int_from_format_string@?$output_processor@DV?$stream_output_adapter@D@__crt_stdio_output@@V?$standard_base@DV?$stream_output_adapter@D@__crt_stdio_output@@@2@@__crt_stdio_output@@AEAA_NQEAH@Z 000000018000e824 f i libucrt:output.obj
 0001:0000d8c8       ?parse_int_from_format_string@?$output_processor@_WV?$stream_output_adapter@_W@__crt_stdio_output@@V?$standard_base@_WV?$stream_output_adapter@_W@__crt_stdio_output@@@2@@__crt_stdio_output@@AEAA_NQEAH@Z 000000018000e8c8 f i libucrt:output.obj
 0001:0000d8c8       ?parse_int_from_format_string@?$output_processor@_WV?$string_output_adapter@_W@__crt_stdio_output@@V?$standard_base@_WV?$string_output_adapter@_W@__crt_stdio_output@@@2@@__crt_stdio_output@@AEAA_NQEAH@Z 000000018000e8c8 f i libucrt:output.obj
 0001:0000d96c       ?process@?$output_processor@DV?$stream_output_adapter@D@__crt_stdio_output@@V?$standard_base@DV?$stream_output_adapter@D@__crt_stdio_output@@@2@@__crt_stdio_output@@QEAAHXZ 000000018000e96c f i libucrt:output.obj
 0001:0000db80       ?process@?$output_processor@_WV?$stream_output_adapter@_W@__crt_stdio_output@@V?$standard_base@_WV?$stream_output_adapter@_W@__crt_stdio_output@@@2@@__crt_stdio_output@@QEAAHXZ 000000018000eb80 f i libucrt:output.obj
 0001:0000ddd8       ?process@?$output_processor@_WV?$string_output_adapter@_W@__crt_stdio_output@@V?$standard_base@_WV?$string_output_adapter@_W@__crt_stdio_output@@@2@@__crt_stdio_output@@QEAAHXZ 000000018000edd8 f i libucrt:output.obj
 0001:0000e034       ?state_case_normal@?$output_processor@DV?$stream_output_adapter@D@__crt_stdio_output@@V?$standard_base@DV?$stream_output_adapter@D@__crt_stdio_output@@@2@@__crt_stdio_output@@AEAA_NXZ 000000018000f034 f i libucrt:output.obj
 0001:0000e0a4       ?state_case_normal_tchar@?$output_processor@DV?$stream_output_adapter@D@__crt_stdio_output@@V?$standard_base@DV?$stream_output_adapter@D@__crt_stdio_output@@@2@@__crt_stdio_output@@AEAA_ND@Z 000000018000f0a4 f i libucrt:output.obj
 0001:0000e140       ?state_case_size@?$output_processor@DV?$stream_output_adapter@D@__crt_stdio_output@@V?$standard_base@DV?$stream_output_adapter@D@__crt_stdio_output@@@2@@__crt_stdio_output@@AEAA_NXZ 000000018000f140 f i libucrt:output.obj
 0001:0000e2b4       ?state_case_size@?$output_processor@_WV?$stream_output_adapter@_W@__crt_stdio_output@@V?$standard_base@_WV?$stream_output_adapter@_W@__crt_stdio_output@@@2@@__crt_stdio_output@@AEAA_NXZ 000000018000f2b4 f i libucrt:output.obj
 0001:0000e44c       ?state_case_size@?$output_processor@_WV?$string_output_adapter@_W@__crt_stdio_output@@V?$standard_base@_WV?$string_output_adapter@_W@__crt_stdio_output@@@2@@__crt_stdio_output@@AEAA_NXZ 000000018000f44c f i libucrt:output.obj
 0001:0000e5e4       ?state_case_type@?$output_processor@DV?$stream_output_adapter@D@__crt_stdio_output@@V?$standard_base@DV?$stream_output_adapter@D@__crt_stdio_output@@@2@@__crt_stdio_output@@AEAA_NXZ 000000018000f5e4 f i libucrt:output.obj
 0001:0000e874       ?state_case_type@?$output_processor@_WV?$stream_output_adapter@_W@__crt_stdio_output@@V?$standard_base@_WV?$stream_output_adapter@_W@__crt_stdio_output@@@2@@__crt_stdio_output@@AEAA_NXZ 000000018000f874 f i libucrt:output.obj
 0001:0000eb60       ?state_case_type@?$output_processor@_WV?$string_output_adapter@_W@__crt_stdio_output@@V?$standard_base@_WV?$string_output_adapter@_W@__crt_stdio_output@@@2@@__crt_stdio_output@@AEAA_NXZ 000000018000fb60 f i libucrt:output.obj
 0001:0000ee34       ?type_case_Z@?$output_processor@DV?$stream_output_adapter@D@__crt_stdio_output@@V?$standard_base@DV?$stream_output_adapter@D@__crt_stdio_output@@@2@@__crt_stdio_output@@AEAA_NXZ 000000018000fe34 f i libucrt:output.obj
 0001:0000eeac       ?type_case_Z@?$output_processor@_WV?$stream_output_adapter@_W@__crt_stdio_output@@V?$standard_base@_WV?$stream_output_adapter@_W@__crt_stdio_output@@@2@@__crt_stdio_output@@AEAA_NXZ 000000018000feac f i libucrt:output.obj
 0001:0000eeac       ?type_case_Z@?$output_processor@_WV?$string_output_adapter@_W@__crt_stdio_output@@V?$standard_base@_WV?$string_output_adapter@_W@__crt_stdio_output@@@2@@__crt_stdio_output@@AEAA_NXZ 000000018000feac f i libucrt:output.obj
 0001:0000ef28       ?type_case_a@?$output_processor@DV?$stream_output_adapter@D@__crt_stdio_output@@V?$standard_base@DV?$stream_output_adapter@D@__crt_stdio_output@@@2@@__crt_stdio_output@@AEAA_NXZ 000000018000ff28 f i libucrt:output.obj
 0001:0000f0e4       ?type_case_a@?$output_processor@_WV?$stream_output_adapter@_W@__crt_stdio_output@@V?$standard_base@_WV?$stream_output_adapter@_W@__crt_stdio_output@@@2@@__crt_stdio_output@@AEAA_NXZ 00000001800100e4 f i libucrt:output.obj
 0001:0000f0e4       ?type_case_a@?$output_processor@_WV?$string_output_adapter@_W@__crt_stdio_output@@V?$standard_base@_WV?$string_output_adapter@_W@__crt_stdio_output@@@2@@__crt_stdio_output@@AEAA_NXZ 00000001800100e4 f i libucrt:output.obj
 0001:0000f2c4       ?type_case_c_tchar@?$output_processor@DV?$stream_output_adapter@D@__crt_stdio_output@@V?$standard_base@DV?$stream_output_adapter@D@__crt_stdio_output@@@2@@__crt_stdio_output@@AEAA_ND@Z 00000001800102c4 f i libucrt:output.obj
 0001:0000f388       ?type_case_c_tchar@?$output_processor@_WV?$stream_output_adapter@_W@__crt_stdio_output@@V?$standard_base@_WV?$stream_output_adapter@_W@__crt_stdio_output@@@2@@__crt_stdio_output@@AEAA_N_W@Z 0000000180010388 f i libucrt:output.obj
 0001:0000f388       ?type_case_c_tchar@?$output_processor@_WV?$string_output_adapter@_W@__crt_stdio_output@@V?$standard_base@_WV?$string_output_adapter@_W@__crt_stdio_output@@@2@@__crt_stdio_output@@AEAA_N_W@Z 0000000180010388 f i libucrt:output.obj
 0001:0000f430       ?type_case_integer@?$output_processor@DV?$stream_output_adapter@D@__crt_stdio_output@@V?$standard_base@DV?$stream_output_adapter@D@__crt_stdio_output@@@2@@__crt_stdio_output@@AEAA_NI_N@Z 0000000180010430 f i libucrt:output.obj
 0001:0000f5f8       ?type_case_integer@?$output_processor@_WV?$string_output_adapter@_W@__crt_stdio_output@@V?$standard_base@_WV?$string_output_adapter@_W@__crt_stdio_output@@@2@@__crt_stdio_output@@AEAA_NI_N@Z 00000001800105f8 f i libucrt:output.obj
 0001:0000f5f8       ?type_case_integer@?$output_processor@_WV?$stream_output_adapter@_W@__crt_stdio_output@@V?$standard_base@_WV?$stream_output_adapter@_W@__crt_stdio_output@@@2@@__crt_stdio_output@@AEAA_NI_N@Z 00000001800105f8 f i libucrt:output.obj
 0001:0000f7c4       ?type_case_n@?$output_processor@_WV?$stream_output_adapter@_W@__crt_stdio_output@@V?$standard_base@_WV?$stream_output_adapter@_W@__crt_stdio_output@@@2@@__crt_stdio_output@@AEAA_NXZ 00000001800107c4 f i libucrt:output.obj
 0001:0000f7c4       ?type_case_n@?$output_processor@_WV?$string_output_adapter@_W@__crt_stdio_output@@V?$standard_base@_WV?$string_output_adapter@_W@__crt_stdio_output@@@2@@__crt_stdio_output@@AEAA_NXZ 00000001800107c4 f i libucrt:output.obj
 0001:0000f7c4       ?type_case_n@?$output_processor@DV?$stream_output_adapter@D@__crt_stdio_output@@V?$standard_base@DV?$stream_output_adapter@D@__crt_stdio_output@@@2@@__crt_stdio_output@@AEAA_NXZ 00000001800107c4 f i libucrt:output.obj
 0001:0000f8a0       ?type_case_s@?$output_processor@DV?$stream_output_adapter@D@__crt_stdio_output@@V?$standard_base@DV?$stream_output_adapter@D@__crt_stdio_output@@@2@@__crt_stdio_output@@AEAA_NXZ 00000001800108a0 f i libucrt:output.obj
 0001:0000f938       ?type_case_s@?$output_processor@_WV?$stream_output_adapter@_W@__crt_stdio_output@@V?$standard_base@_WV?$stream_output_adapter@_W@__crt_stdio_output@@@2@@__crt_stdio_output@@AEAA_NXZ 0000000180010938 f i libucrt:output.obj
 0001:0000f938       ?type_case_s@?$output_processor@_WV?$string_output_adapter@_W@__crt_stdio_output@@V?$standard_base@_WV?$string_output_adapter@_W@__crt_stdio_output@@@2@@__crt_stdio_output@@AEAA_NXZ 0000000180010938 f i libucrt:output.obj
 0001:0000f9fc       ?validate_stream_is_ansi_if_required@?$__acrt_stdio_char_traits@D@@SA_NQEAU_iobuf@@@Z 00000001800109fc f i libucrt:output.obj
 0001:0000fa90       ?write_stored_string_tchar@?$output_processor@DV?$stream_output_adapter@D@__crt_stdio_output@@V?$standard_base@DV?$stream_output_adapter@D@__crt_stdio_output@@@2@@__crt_stdio_output@@AEAA_ND@Z 0000000180010a90 f i libucrt:output.obj
 0001:0000fbb4       ?write_stored_string_tchar@?$output_processor@_WV?$stream_output_adapter@_W@__crt_stdio_output@@V?$standard_base@_WV?$stream_output_adapter@_W@__crt_stdio_output@@@2@@__crt_stdio_output@@AEAA_N_W@Z 0000000180010bb4 f i libucrt:output.obj
 0001:0000fcbc       ?write_stored_string_tchar@?$output_processor@_WV?$string_output_adapter@_W@__crt_stdio_output@@V?$standard_base@_WV?$string_output_adapter@_W@__crt_stdio_output@@@2@@__crt_stdio_output@@AEAA_N_W@Z 0000000180010cbc f i libucrt:output.obj
 0001:0000fda8       ?write_string@?$string_output_adapter@_W@__crt_stdio_output@@QEBAXQEB_WHQEAHAEAV__crt_deferred_errno_cache@@@Z 0000000180010da8 f i libucrt:output.obj
 0001:0000fe50       ?write_string_impl@?$output_adapter_common@DV?$stream_output_adapter@D@__crt_stdio_output@@@__crt_stdio_output@@IEBAXQEBDHQEAHAEAV__crt_deferred_errno_cache@@@Z 0000000180010e50 f i libucrt:output.obj
 0001:0000ff48       ?write_string_impl@?$output_adapter_common@_WV?$stream_output_adapter@_W@__crt_stdio_output@@@__crt_stdio_output@@IEBAXQEB_WHQEAHAEAV__crt_deferred_errno_cache@@@Z 0000000180010f48 f i libucrt:output.obj
 0001:0001004c       __stdio_common_vfprintf    000000018001104c f   libucrt:output.obj
 0001:000100d8       __stdio_common_vfwprintf   00000001800110d8 f   libucrt:output.obj
 0001:00010164       __stdio_common_vswprintf   0000000180011164 f   libucrt:output.obj
 0001:0001016c       __acrt_initialize_new_handler 000000018001116c f   libucrt:new_handler.obj
 0001:00010174       _callnewh                  0000000180011174 f   libucrt:new_handler.obj
 0001:000101a4       _query_new_handler         00000001800111a4 f   libucrt:new_handler.obj
 0001:000101d8       _initterm                  00000001800111d8 f   libucrt:initterm.obj
 0001:0001023c       _initterm_e                000000018001123c f   libucrt:initterm.obj
 0001:0001027c       _seh_filter_dll            000000018001127c f   libucrt:exception_filter.obj
 0001:00010290       _seh_filter_exe            0000000180011290 f   libucrt:exception_filter.obj
 0001:00010688       __acrt_initialize_thread_local_exit_callback 0000000180011688 f   libucrt:exit.obj
 0001:00010690       _cexit                     0000000180011690 f   libucrt:exit.obj
 0001:000106a0       _exit                      00000001800116a0 f   libucrt:exit.obj
 0001:000106ac       _is_c_termination_complete 00000001800116ac f   libucrt:exit.obj
 0001:00010878       __acrt_allocate_buffer_for_argv 0000000180011878 f   libucrt:argv_parsing.obj
 0001:000108d8       _configure_narrow_argv     00000001800118d8 f   libucrt:argv_parsing.obj
 0001:00010c50       __dcrt_uninitialize_environments_nolock 0000000180011c50 f   libucrt:environment_initialization.obj
 0001:00010c88       _initialize_narrow_environment 0000000180011c88 f   libucrt:environment_initialization.obj
 0001:00010e18       _execute_onexit_table      0000000180011e18 f   libucrt:onexit.obj
 0001:00010e54       _initialize_onexit_table   0000000180011e54 f   libucrt:onexit.obj
 0001:00010ecc       __acrt_uninitialize_command_line 0000000180011ecc f   libucrt:argv_data.obj
 0001:00010fd8       __acrt_initialize          0000000180011fd8 f   libucrt:initialization.obj
 0001:00010fec       __acrt_thread_attach       0000000180011fec f   libucrt:initialization.obj
 0001:00011000       __acrt_thread_detach       0000000180012000 f   libucrt:initialization.obj
 0001:00011010       __acrt_uninitialize        0000000180012010 f   libucrt:initialization.obj
 0001:00011048       __acrt_uninitialize_critical 0000000180012048 f   libucrt:initialization.obj
 0001:00011058       terminate                  0000000180012058 f   libucrt:terminate.obj
 0001:00011078       strcpy_s                   0000000180012078 f   libucrt:strcpy_s.obj
 0001:000110e8       calloc                     00000001800120e8 f   libucrt:calloc.obj
 0001:000110f0       wcsncmp                    00000001800120f0 f   libucrt:wcsncmp.obj
 0001:0001111c       ??$parse_integer@KV?$c_string_character_source@D@__crt_strtox@@@__crt_strtox@@YAKQEAU__crt_locale_pointers@@V?$c_string_character_source@D@0@H_N@Z 000000018001211c f i libucrt:atox.obj
 0001:00011458       ??$parse_integer@KV?$c_string_character_source@_W@__crt_strtox@@@__crt_strtox@@YAKQEAU__crt_locale_pointers@@V?$c_string_character_source@_W@0@H_N@Z 0000000180012458 f i libucrt:atox.obj
 0001:00011b20       strncmp                    0000000180012b20 f   libucrt:strncmp.obj
 0001:00011ba0       _calloc_base               0000000180012ba0 f   libucrt:calloc_base.obj
 0001:00011c18       _free_base                 0000000180012c18 f   libucrt:free_base.obj
 0001:00011c58       __sys_errlist              0000000180012c58 f   libucrt:syserr.obj
 0001:00011c60       __sys_nerr                 0000000180012c60 f   libucrt:syserr.obj
 0001:00011e6c       _mbstowcs_l                0000000180012e6c f   libucrt:mbstowcs.obj
 0001:00011e74       mbstowcs                   0000000180012e74 f   libucrt:mbstowcs.obj
 0001:00011e90       strncpy_s                  0000000180012e90 f   libucrt:strncpy_s.obj
 0001:000122f0       __acrt_freeptd             00000001800132f0 f   libucrt:per_thread_data.obj
 0001:00012334       __acrt_getptd              0000000180013334 f   libucrt:per_thread_data.obj
 0001:000123f8       __acrt_getptd_head         00000001800133f8 f   libucrt:per_thread_data.obj
 0001:000124a0       __acrt_getptd_noexit       00000001800134a0 f   libucrt:per_thread_data.obj
 0001:00012558       __acrt_initialize_ptd      0000000180013558 f   libucrt:per_thread_data.obj
 0001:00012594       __acrt_uninitialize_ptd    0000000180013594 f   libucrt:per_thread_data.obj
 0001:000125b8       _query_app_type            00000001800135b8 f   libucrt:report_runtime_error.obj
 0001:000126f0       _itow_s                    00000001800136f0 f   libucrt:xtoa.obj
 0001:00012710       _set_error_mode            0000000180013710 f   libucrt:set_error_mode.obj
 0001:00012750       wcscat_s                   0000000180013750 f   libucrt:wcscat_s.obj
 0001:000127dc       wcscpy_s                   00000001800137dc f   libucrt:wcscpy_s.obj
 0001:00012854       wcsncat_s                  0000000180013854 f   libucrt:wcsncat_s.obj
 0001:00012968       __acrt_GetModuleFileNameA  0000000180013968 f   libucrt:getmodulefilenamea.obj
 0001:000129e4       __acrt_show_wide_message_box 00000001800139e4 f   libucrt:crtmbox.obj
 0001:00012ca4       __acrt_stdio_flush_nolock  0000000180013ca4 f   libucrt:fflush.obj
 0001:00012d20       _fflush_nolock             0000000180013d20 f   libucrt:fflush.obj
 0001:00012d6c       _flushall                  0000000180013d6c f   libucrt:fflush.obj
 0001:00012d74       fflush                     0000000180013d74 f   libucrt:fflush.obj
 0001:00012f0c       setvbuf                    0000000180013f0c f   libucrt:setvbuf.obj
 0001:00012ff0       __acrt_get_sigabrt_handler 0000000180013ff0 f   libucrt:signal.obj
 0001:00013020       __acrt_initialize_signal_handlers 0000000180014020 f   libucrt:signal.obj
 0001:00013040       raise                      0000000180014040 f   libucrt:signal.obj
 0001:00013310       _tolower_l                 0000000180014310 f   libucrt:tolower_toupper.obj
 0001:00013450       tolower                    0000000180014450 f   libucrt:tolower_toupper.obj
 0001:0001347c       __acrt_update_locale_info  000000018001447c f   libucrt:locale_update.obj
 0001:000134b0       __acrt_update_multibyte_info 00000001800144b0 f   libucrt:locale_update.obj
 0001:00013554       __acrt_set_locale_changed  0000000180014554 f   libucrt:wsetlocale.obj
 0001:00013560       __acrt_uninitialize_locale 0000000180014560 f   libucrt:wsetlocale.obj
 0001:00013590       _malloc_base               0000000180014590 f   libucrt:malloc_base.obj
 0001:000137c8       __acrt_AppPolicyGetProcessTerminationMethodInternal 00000001800147c8 f   libucrt:winapi_thunks.obj
 0001:00013818       __acrt_AppPolicyGetShowDeveloperDiagnosticInternal 0000000180014818 f   libucrt:winapi_thunks.obj
 0001:00013868       __acrt_AppPolicyGetWindowingModelInternal 0000000180014868 f   libucrt:winapi_thunks.obj
 0001:000138b8       __acrt_FlsAlloc            00000001800148b8 f   libucrt:winapi_thunks.obj
 0001:00013900       __acrt_FlsFree             0000000180014900 f   libucrt:winapi_thunks.obj
 0001:00013948       __acrt_FlsGetValue         0000000180014948 f   libucrt:winapi_thunks.obj
 0001:00013990       __acrt_FlsSetValue         0000000180014990 f   libucrt:winapi_thunks.obj
 0001:000139e4       __acrt_InitializeCriticalSectionEx 00000001800149e4 f   libucrt:winapi_thunks.obj
 0001:00013a48       __acrt_LCMapStringEx       0000000180014a48 f   libucrt:winapi_thunks.obj
 0001:00013b24       __acrt_LocaleNameToLCID    0000000180014b24 f   libucrt:winapi_thunks.obj
 0001:00013b74       __acrt_MessageBoxW         0000000180014b74 f   libucrt:winapi_thunks.obj
 0001:00013be8       __acrt_can_show_message_box 0000000180014be8 f   libucrt:winapi_thunks.obj
 0001:00013c58       __acrt_get_parent_window   0000000180014c58 f   libucrt:winapi_thunks.obj
 0001:00013cd4       __acrt_initialize_winapi_thunks 0000000180014cd4 f   libucrt:winapi_thunks.obj
 0001:00013d1c       __acrt_is_interactive      0000000180014d1c f   libucrt:winapi_thunks.obj
 0001:00013de4       __acrt_uninitialize_winapi_thunks 0000000180014de4 f   libucrt:winapi_thunks.obj
 0001:00013e28       _fcloseall                 0000000180014e28 f   libucrt:closeall.obj
 0001:00013edc       __acrt_stdio_free_buffer_nolock 0000000180014edc f   libucrt:_freebuf.obj
 0001:00014104       __acrt_initialize_lowio    0000000180015104 f   libucrt:ioinit.obj
 0001:00014140       __acrt_uninitialize_lowio  0000000180015140 f   libucrt:ioinit.obj
 0001:00014180       isdigit                    0000000180015180 f i libucrt:_ctype.obj
 0001:000141f8       strtol                     00000001800151f8 f   libucrt:strtox.obj
 0001:00014224       wcstol                     0000000180015224 f   libucrt:strtox.obj
 0001:00014250       _mbtowc_l                  0000000180015250 f   libucrt:mbtowc.obj
 0001:000143cc       mbtowc                     00000001800153cc f   libucrt:mbtowc.obj
 0001:000143d4       _wctomb_s_l                00000001800153d4 f   libucrt:wctomb.obj
 0001:00014558       wctomb_s                   0000000180015558 f   libucrt:wctomb.obj
 0001:0001456c       strnlen                    000000018001556c f   libucrt:strnlen.obj
 0001:000146bc       wcsnlen                    00000001800156bc f   libucrt:strnlen.obj
 0001:00015264       __acrt_fp_format           0000000180016264 f   libucrt:cvt.obj
 0001:000154ec       _fputwc_nolock             00000001800164ec f   libucrt:fputwc.obj
 0001:00015664       _fileno                    0000000180016664 f   libucrt:fileno.obj
 0001:0001568c       _fputc_nolock              000000018001668c f   libucrt:fputc.obj
 0001:000156a4       _get_printf_count_output   00000001800166a4 f   libucrt:printf_count_output.obj
 0001:000156bc       __acrt_stdio_begin_temporary_buffering_nolock 00000001800166bc f   libucrt:_sftbuf.obj
 0001:0001578c       __acrt_stdio_end_temporary_buffering_nolock 000000018001678c f   libucrt:_sftbuf.obj
 0001:000157c8       __acrt_initialize_locks    00000001800167c8 f   libucrt:locks.obj
 0001:00015810       __acrt_lock                0000000180016810 f   libucrt:locks.obj
 0001:0001582c       __acrt_uninitialize_locks  000000018001682c f   libucrt:locks.obj
 0001:00015864       __acrt_unlock              0000000180016864 f   libucrt:locks.obj
 0001:00015880       __acrt_get_developer_information_policy 0000000180016880 f   libucrt:win_policies.obj
 0001:000158d4       __acrt_get_process_end_policy 00000001800168d4 f   libucrt:win_policies.obj
 0001:00015910       __acrt_get_windowing_model_policy 0000000180016910 f   libucrt:win_policies.obj
 0001:00015ee4       __acrt_expand_narrow_argv_wildcards 0000000180016ee4 f   libucrt:argv_wildcards.obj
 0001:00016618       __acrt_initialize_multibyte 0000000180017618 f   libucrt:mbctype.obj
 0001:00016678       __acrt_update_thread_multibyte_data 0000000180017678 f   libucrt:mbctype.obj
 0001:00016694       _setmbcp_nolock            0000000180017694 f   libucrt:mbctype.obj
 0001:000169c4       _ismbblead                 00000001800179c4 f   libucrt:ismbbyte.obj
 0001:000169d8       __acrt_initialize_command_line 00000001800179d8 f   libucrt:argv_data.obj
 0001:00016a00       __acrt_MultiByteToWideChar 0000000180017a00 f   libucrt:multibytetowidechar.obj
 0001:00016a5c       __acrt_WideCharToMultiByte 0000000180017a5c f   libucrt:widechartomultibyte.obj
 0001:00016af4       __dcrt_get_narrow_environment_from_os 0000000180017af4 f   libucrt:get_environment_from_os.obj
 0001:00016bf8       _recalloc                  0000000180017bf8 f   libucrt:recalloc.obj
 0001:00016c00       _recalloc_base             0000000180017c00 f   libucrt:recalloc.obj
 0001:00016c98       __acrt_initialize_heap     0000000180017c98 f   libucrt:heap_handle.obj
 0001:00016cb4       __acrt_uninitialize_heap   0000000180017cb4 f   libucrt:heap_handle.obj
 0001:00016cc0       __acrt_execute_initializers 0000000180017cc0 f   libucrt:shared_initialization.obj
 0001:00016d40       __acrt_execute_uninitializers 0000000180017d40 f   libucrt:shared_initialization.obj
 0001:00016d7c       __acrt_has_user_matherr    0000000180017d7c f   libucrt:matherr.obj
 0001:00016d9c       __acrt_initialize_user_matherr 0000000180017d9c f   libucrt:matherr.obj
 0001:00016da4       __acrt_invoke_user_matherr 0000000180017da4 f   libucrt:matherr.obj
 0001:00016dd4       __pctype_func              0000000180017dd4 f   libucrt:ctype.obj
 0001:00016e04       iswctype                   0000000180017e04 f   libucrt:iswctype.obj
 0001:00016e74       _isctype_l                 0000000180017e74 f   libucrt:isctype.obj
 0001:00016f88       _query_new_mode            0000000180017f88 f   libucrt:new_mode.obj
 0001:00016f90       _isleadbyte_l              0000000180017f90 f i libucrt:_wctype.obj
 0001:00016fd0       ?__mbrtowc_utf8@__crt_mbstring@@YA_KPEA_WPEBD_KPEAU_Mbstatet@@@Z 0000000180017fd0 f   libucrt:mbrtowc.obj
 0001:0001700c       ?__mbsrtowcs_utf8@__crt_mbstring@@YA_KPEA_WPEAPEBD_KPEAU_Mbstatet@@@Z 000000018001800c f   libucrt:mbrtowc.obj
 0001:00017184       __acrt_add_locale_ref      0000000180018184 f   libucrt:locale_refcounting.obj
 0001:00017210       __acrt_free_locale         0000000180018210 f   libucrt:locale_refcounting.obj
 0001:00017388       __acrt_locale_add_lc_time_reference 0000000180018388 f   libucrt:locale_refcounting.obj
 0001:000173b0       __acrt_locale_free_lc_time_if_unreferenced 00000001800183b0 f   libucrt:locale_refcounting.obj
 0001:000173e8       __acrt_locale_release_lc_time_reference 00000001800183e8 f   libucrt:locale_refcounting.obj
 0001:00017410       __acrt_release_locale_ref  0000000180018410 f   libucrt:locale_refcounting.obj
 0001:000174b8       __acrt_update_thread_locale_data 00000001800184b8 f   libucrt:locale_refcounting.obj
 0001:00017528       _updatetlocinfoEx_nolock   0000000180018528 f   libucrt:locale_refcounting.obj
 0001:0001761c       _commit                    000000018001861c f   libucrt:commit.obj
 0001:00017c58       _write                     0000000180018c58 f   libucrt:write.obj
 0001:00017d44       _write_nolock              0000000180018d44 f   libucrt:write.obj
 0001:0001833c       __acrt_LCMapStringA        000000018001933c f   libucrt:lcmapstringa.obj
 0001:000183d4       __acrt_locale_free_monetary 00000001800193d4 f   libucrt:initmon.obj
 0001:000184e0       __acrt_locale_free_numeric 00000001800194e0 f   libucrt:initnum.obj
 0001:000185a0       __acrt_locale_free_time    00000001800195a0 f   libucrt:inittime.obj
 0001:000186a8       __acrt_GetStringTypeA      00000001800196a8 f   libucrt:getstringtypea.obj
 0001:00018920       __acrt_DownlevelLocaleNameToLCID 0000000180019920 f   libucrt:lcidtoname_downlevel.obj
 0001:00018954       _fclose_nolock             0000000180019954 f   libucrt:fclose.obj
 0001:000189d8       fclose                     00000001800199d8 f   libucrt:fclose.obj
 0001:00018a3c       __acrt_lowio_create_handle_array 0000000180019a3c f   libucrt:osfinfo.obj
 0001:00018ad4       __acrt_lowio_destroy_handle_array 0000000180019ad4 f   libucrt:osfinfo.obj
 0001:00018b24       __acrt_lowio_ensure_fh_exists 0000000180019b24 f   libucrt:osfinfo.obj
 0001:00018bcc       __acrt_lowio_lock_fh       0000000180019bcc f   libucrt:osfinfo.obj
 0001:00018bf0       __acrt_lowio_unlock_fh     0000000180019bf0 f   libucrt:osfinfo.obj
 0001:00018c14       _free_osfhnd               0000000180019c14 f   libucrt:osfinfo.obj
 0001:00018cd0       _get_osfhandle             0000000180019cd0 f   libucrt:osfinfo.obj
 0001:00018d48       __acrt_fp_strflt_to_string 0000000180019d48 f   libucrt:_fptostr.obj
 0001:00018e30       ?divide@__crt_strtox@@YA_KAEAUbig_integer@1@AEBU21@@Z 0000000180019e30 f i libucrt:cfout.obj
 0001:000192c0       __acrt_fltout              000000018001a2c0 f   libucrt:cfout.obj
 0001:0001a7e4       __acrt_stdio_flush_and_write_narrow_nolock 000000018001b7e4 f   libucrt:_flsbuf.obj
 0001:0001a8cc       __acrt_stdio_flush_and_write_wide_nolock 000000018001b8cc f   libucrt:_flsbuf.obj
 0001:0001a9b8       _isatty                    000000018001b9b8 f   libucrt:isatty.obj
 0001:0001aa20       qsort                      000000018001ba20 f   libucrt:qsort.obj
 0001:0001ae70       strpbrk                    000000018001be70 f   libucrt:strpbrk.obj
 0001:0001b250       ??$__acrt_convert_wcs_mbs@D_W$$A6A_KPEA_WPEBD_KPEAU__crt_locale_pointers@@@ZU__crt_win32_buffer_internal_dynamic_resizing@@@@YAHQEBDAEAV?$__crt_win32_buffer@_WU__crt_win32_buffer_internal_dynamic_resizing@@@@A6A_KPEA_WPEBD_KPEAU__crt_locale_pointers@@@Z5@Z 000000018001c250 f i libucrt:findfirstfileexa.obj
 0001:0001b358       __acrt_FindFirstFileExA    000000018001c358 f   libucrt:findfirstfileexa.obj
 0001:0001b3fc       ??$__acrt_convert_wcs_mbs@_WD$$A6A_KPEADPEB_W_KPEAU__crt_locale_pointers@@@ZU__crt_win32_buffer_no_resizing@@@@YAHQEB_WAEAV?$__crt_win32_buffer@DU__crt_win32_buffer_no_resizing@@@@A6A_KPEADPEB_W_KPEAU__crt_locale_pointers@@@Z5@Z 000000018001c3fc f i libucrt:findnextfilea.obj
 0001:0001b4c8       __acrt_FindNextFileA       000000018001c4c8 f   libucrt:findnextfilea.obj
 0001:0001b5fc       _mbsdec                    000000018001c5fc f   libucrt:mbsdec.obj
 0001:0001b604       _mbsdec_l                  000000018001c604 f   libucrt:mbsdec.obj
 0001:0001b6b0       _msize                     000000018001c6b0 f   libucrt:msize.obj
 0001:0001b6b8       _msize_base                000000018001c6b8 f   libucrt:msize.obj
 0001:0001b6f4       _realloc_base              000000018001c6f4 f   libucrt:realloc_base.obj
 0001:0001b770       __acrt_GetStringTypeW      000000018001c770 f   libucrt:getstringtypew.obj
 0001:0001b778       ?__mbrtoc32_utf8@__crt_mbstring@@YA_KPEA_UPEBD_KPEAU_Mbstatet@@@Z 000000018001c778 f   libucrt:mbrtoc32.obj
 0001:0001bae0       _lseeki64                  000000018001cae0 f   libucrt:lseek.obj
 0001:0001bae8       _lseeki64_nolock           000000018001cae8 f   libucrt:lseek.obj
 0001:0001baf0       _putwch_nolock             000000018001caf0 f   libucrt:putwch.obj
 0001:0001bb2c       __strncnt                  000000018001cb2c f   libucrt:strncnt.obj
 0001:0001bbb8       _close                     000000018001cbb8 f   libucrt:close.obj
 0001:0001bc5c       _close_nolock              000000018001cc5c f   libucrt:close.obj
 0001:0001bd18       ?__acrt_stdio_free_stream@@YAXV__crt_stdio_stream@@@Z 000000018001cd18 f   libucrt:stream.obj
 0001:0001bd34       fegetenv                   000000018001cd34 f   libucrt:fegetenv.obj
 0001:0001bd54       fesetenv                   000000018001cd54 f   libucrt:fesetenv.obj
 0001:0001bda4       feholdexcept               000000018001cda4 f   libucrt:feholdexcept.obj
 0001:0001bdf4       ceil                       000000018001cdf4 f   libucrt:ceil.obj
 0001:0001bec0       log10                      000000018001cec0 f   libucrt:log10.obj
 0001:0001c46c       __acrt_stdio_allocate_buffer_nolock 000000018001d46c f   libucrt:_getbuf.obj
 0001:0001c83c       _wcstombs_l                000000018001d83c f   libucrt:wcstombs.obj
 0001:0001c844       __dcrt_lowio_ensure_console_output_initialized 000000018001d844 f   libucrt:initcon.obj
 0001:0001c898       __dcrt_terminate_console_output 000000018001d898 f   libucrt:initcon.obj
 0001:0001c8b4       __dcrt_write_console       000000018001d8b4 f   libucrt:initcon.obj
 0001:0001c974       __acrt_fenv_get_control    000000018001d974 f   libucrt:_fenvutils.obj
 0001:0001ca74       __acrt_fenv_get_status     000000018001da74 f   libucrt:_fenvutils.obj
 0001:0001cacc       __acrt_fenv_set_control    000000018001dacc f   libucrt:_fenvutils.obj
 0001:0001cc14       __acrt_fenv_set_status     000000018001dc14 f   libucrt:_fenvutils.obj
 0001:0001cc98       _clearfp                   000000018001dc98 f   libucrt:ieee.obj
 0001:0001ce2c       _handle_error              000000018001de2c f   libucrt:libm_error.obj
 0001:0001cf54       _handle_nan                000000018001df54 f   libucrt:libm_error.obj
 0001:0001cf70       __acrt_initialize_fma3     000000018001df70 f   libucrt:fma3_available.obj
 0001:0001cfe0       _log10_special             000000018001dfe0 f   libucrt:log_special.obj
 0001:0001d098       ?__wcsrtombs_utf8@__crt_mbstring@@YA_KPEADPEAPEB_W_KPEAU_Mbstatet@@@Z 000000018001e098 f   libucrt:wcrtomb.obj
 0001:0001d1d0       _get_fpsr                  000000018001e1d0 f   libucrt:fpsr.obj
 0001:0001d1e0       _set_fpsr                  000000018001e1e0 f   libucrt:fpsr.obj
 0001:0001d1ea       _fclrf                     000000018001e1ea f   libucrt:fpsr.obj
 0001:0001d1fe       _frnd                      000000018001e1fe f   libucrt:fpsr.obj
 0001:0001d220       _raise_exc                 000000018001e220 f   libucrt:fpexcept.obj
 0001:0001d248       _raise_exc_ex              000000018001e248 f   libucrt:fpexcept.obj
 0001:0001d558       _set_errno_from_matherr    000000018001e558 f   libucrt:fpexcept.obj
 0001:0001d588       _clrfp                     000000018001e588 f   libucrt:fpctrl.obj
 0001:0001d5a8       _ctrlfp                    000000018001e5a8 f   libucrt:fpctrl.obj
 0001:0001d624       _set_statfp                000000018001e624 f   libucrt:fpctrl.obj
 0001:0001d644       _statfp                    000000018001e644 f   libucrt:fpctrl.obj
 0001:0001d658       ?__c16rtomb_utf8@__crt_mbstring@@YA_KPEAD_SPEAU_Mbstatet@@@Z 000000018001e658 f   libucrt:c16rtomb.obj
 0001:0001d700       ?__c32rtomb_utf8@__crt_mbstring@@YA_KPEAD_UPEAU_Mbstatet@@@Z 000000018001e700 f   libucrt:c32rtomb.obj
 0001:0001d7b8       c32rtomb                   000000018001e7b8 f   libucrt:c32rtomb.obj
 0001:0001d7bd       IsProcessorFeaturePresent  000000018001e7bd f   kernel32:KERNEL32.dll
 0001:0001d7c3       RtlUnwindEx                000000018001e7c3 f   kernel32:KERNEL32.dll
 0001:0001d7cc       ?DloadAcquireSectionWriteAccess@@YAXXZ 000000018001e7cc f i DelayImp:delayhlp.obj
 0001:0001d878       ?DloadGetSRWLockFunctionPointers@@YAEXZ 000000018001e878 f i DelayImp:delayhlp.obj
 0001:0001d914       ?DloadMakePermanentImageCommit@@YAXPEAX_K@Z 000000018001e914 f i DelayImp:delayhlp.obj
 0001:0001d9ac       ?DloadObtainSection@@YAPEAXPEAK0@Z 000000018001e9ac f i DelayImp:delayhlp.obj
 0001:0001da48       ?DloadProtectSection@@YAXKPEAK@Z 000000018001ea48 f i DelayImp:delayhlp.obj
 0001:0001dad8       ?DloadReleaseSectionWriteAccess@@YAXXZ 000000018001ead8 f i DelayImp:delayhlp.obj
 0001:0001db6c       __delayLoadHelper2         000000018001eb6c f   DelayImp:delayhlp.obj
 0001:0001de2c       __GSHandlerCheck           000000018001ee2c f   LIBCMT:_gshandler_.obj
 0001:0001de4c       __GSHandlerCheckCommon     000000018001ee4c f   LIBCMT:_gshandler_.obj
 0001:0001deb0       _FindPESection             000000018001eeb0 f   LIBCMT:pesect.obj
 0001:0001df00       _IsNonwritableInCurrentImage 000000018001ef00 f   LIBCMT:pesect.obj
 0001:0001df50       _ValidateImageBase         000000018001ef50 f   LIBCMT:pesect.obj
 0001:0001df90       _alloca_probe              000000018001ef90 f   LIBCMT:_chkstk_.obj
 0001:0001df90       __chkstk                   000000018001ef90 f   LIBCMT:_chkstk_.obj
 0001:0001dfe4       __GSHandlerCheck_EH        000000018001efe4 f   LIBCMT:gshandlereh.obj
 0001:0001e080       memcmp                     000000018001f080 f   libvcruntime:memcmp.obj
 0001:0001e148       strrchr                    000000018001f148 f   libvcruntime:strrchr.obj
 0001:0001e2b0       _guard_dispatch_icall_nop  000000018001f2b0 f   LIBCMT:_guard_dispatch_.obj
 0002:00000000       __imp_GetModuleHandleA     0000000180020000     kernel32:KERNEL32.dll
 0002:00000008       __imp_VirtualQuery         0000000180020008     kernel32:KERNEL32.dll
 0002:00000010       __imp_SystemTimeToFileTime 0000000180020010     kernel32:KERNEL32.dll
 0002:00000018       __imp_GetSystemTime        0000000180020018     kernel32:KERNEL32.dll
 0002:00000020       __imp_RtlCaptureContext    0000000180020020     kernel32:KERNEL32.dll
 0002:00000028       __imp_RtlLookupFunctionEntry 0000000180020028     kernel32:KERNEL32.dll
 0002:00000030       __imp_RtlVirtualUnwind     0000000180020030     kernel32:KERNEL32.dll
 0002:00000038       __imp_UnhandledExceptionFilter 0000000180020038     kernel32:KERNEL32.dll
 0002:00000040       __imp_SetUnhandledExceptionFilter 0000000180020040     kernel32:KERNEL32.dll
 0002:00000048       __imp_GetCurrentProcess    0000000180020048     kernel32:KERNEL32.dll
 0002:00000050       __imp_TerminateProcess     0000000180020050     kernel32:KERNEL32.dll
 0002:00000058       __imp_IsProcessorFeaturePresent 0000000180020058     kernel32:KERNEL32.dll
 0002:00000060       __imp_QueryPerformanceCounter 0000000180020060     kernel32:KERNEL32.dll
 0002:00000068       __imp_GetCurrentProcessId  0000000180020068     kernel32:KERNEL32.dll
 0002:00000070       __imp_GetCurrentThreadId   0000000180020070     kernel32:KERNEL32.dll
 0002:00000078       __imp_GetSystemTimeAsFileTime 0000000180020078     kernel32:KERNEL32.dll
 0002:00000080       __imp_InitializeSListHead  0000000180020080     kernel32:KERNEL32.dll
 0002:00000088       __imp_IsDebuggerPresent    0000000180020088     kernel32:KERNEL32.dll
 0002:00000090       __imp_GetStartupInfoW      0000000180020090     kernel32:KERNEL32.dll
 0002:00000098       __imp_GetModuleHandleW     0000000180020098     kernel32:KERNEL32.dll
 0002:000000a0       __imp_RtlUnwindEx          00000001800200a0     kernel32:KERNEL32.dll
 0002:000000a8       __imp_RtlPcToFileHeader    00000001800200a8     kernel32:KERNEL32.dll
 0002:000000b0       __imp_RaiseException       00000001800200b0     kernel32:KERNEL32.dll
 0002:000000b8       __imp_InterlockedFlushSList 00000001800200b8     kernel32:KERNEL32.dll
 0002:000000c0       __imp_GetLastError         00000001800200c0     kernel32:KERNEL32.dll
 0002:000000c8       __imp_SetLastError         00000001800200c8     kernel32:KERNEL32.dll
 0002:000000d0       __imp_EncodePointer        00000001800200d0     kernel32:KERNEL32.dll
 0002:000000d8       __imp_EnterCriticalSection 00000001800200d8     kernel32:KERNEL32.dll
 0002:000000e0       __imp_LeaveCriticalSection 00000001800200e0     kernel32:KERNEL32.dll
 0002:000000e8       __imp_DeleteCriticalSection 00000001800200e8     kernel32:KERNEL32.dll
 0002:000000f0       __imp_InitializeCriticalSectionAndSpinCount 00000001800200f0     kernel32:KERNEL32.dll
 0002:000000f8       __imp_TlsAlloc             00000001800200f8     kernel32:KERNEL32.dll
 0002:00000100       __imp_TlsGetValue          0000000180020100     kernel32:KERNEL32.dll
 0002:00000108       __imp_TlsSetValue          0000000180020108     kernel32:KERNEL32.dll
 0002:00000110       __imp_TlsFree              0000000180020110     kernel32:KERNEL32.dll
 0002:00000118       __imp_FreeLibrary          0000000180020118     kernel32:KERNEL32.dll
 0002:00000120       __imp_GetProcAddress       0000000180020120     kernel32:KERNEL32.dll
 0002:00000128       __imp_LoadLibraryExW       0000000180020128     kernel32:KERNEL32.dll
 0002:00000130       __imp_GetStdHandle         0000000180020130     kernel32:KERNEL32.dll
 0002:00000138       __imp_GetFileType          0000000180020138     kernel32:KERNEL32.dll
 0002:00000140       __imp_GetModuleFileNameW   0000000180020140     kernel32:KERNEL32.dll
 0002:00000148       __imp_GetModuleHandleExW   0000000180020148     kernel32:KERNEL32.dll
 0002:00000150       __imp_WriteConsoleW        0000000180020150     kernel32:KERNEL32.dll
 0002:00000158       __imp_ExitProcess          0000000180020158     kernel32:KERNEL32.dll
 0002:00000160       __imp_HeapAlloc            0000000180020160     kernel32:KERNEL32.dll
 0002:00000168       __imp_HeapFree             0000000180020168     kernel32:KERNEL32.dll
 0002:00000170       __imp_WriteFile            0000000180020170     kernel32:KERNEL32.dll
 0002:00000178       __imp_OutputDebugStringW   0000000180020178     kernel32:KERNEL32.dll
 0002:00000180       __imp_LCMapStringW         0000000180020180     kernel32:KERNEL32.dll
 0002:00000188       __imp_FindClose            0000000180020188     kernel32:KERNEL32.dll
 0002:00000190       __imp_FindFirstFileExW     0000000180020190     kernel32:KERNEL32.dll
 0002:00000198       __imp_FindNextFileW        0000000180020198     kernel32:KERNEL32.dll
 0002:000001a0       __imp_IsValidCodePage      00000001800201a0     kernel32:KERNEL32.dll
 0002:000001a8       __imp_GetACP               00000001800201a8     kernel32:KERNEL32.dll
 0002:000001b0       __imp_GetOEMCP             00000001800201b0     kernel32:KERNEL32.dll
 0002:000001b8       __imp_GetCPInfo            00000001800201b8     kernel32:KERNEL32.dll
 0002:000001c0       __imp_GetCommandLineA      00000001800201c0     kernel32:KERNEL32.dll
 0002:000001c8       __imp_GetCommandLineW      00000001800201c8     kernel32:KERNEL32.dll
 0002:000001d0       __imp_MultiByteToWideChar  00000001800201d0     kernel32:KERNEL32.dll
 0002:000001d8       __imp_WideCharToMultiByte  00000001800201d8     kernel32:KERNEL32.dll
 0002:000001e0       __imp_GetEnvironmentStringsW 00000001800201e0     kernel32:KERNEL32.dll
 0002:000001e8       __imp_FreeEnvironmentStringsW 00000001800201e8     kernel32:KERNEL32.dll
 0002:000001f0       __imp_GetProcessHeap       00000001800201f0     kernel32:KERNEL32.dll
 0002:000001f8       __imp_FlushFileBuffers     00000001800201f8     kernel32:KERNEL32.dll
 0002:00000200       __imp_GetConsoleCP         0000000180020200     kernel32:KERNEL32.dll
 0002:00000208       __imp_GetConsoleMode       0000000180020208     kernel32:KERNEL32.dll
 0002:00000210       __imp_GetStringTypeW       0000000180020210     kernel32:KERNEL32.dll
 0002:00000218       __imp_SetStdHandle         0000000180020218     kernel32:KERNEL32.dll
 0002:00000220       __imp_HeapSize             0000000180020220     kernel32:KERNEL32.dll
 0002:00000228       __imp_HeapReAlloc          0000000180020228     kernel32:KERNEL32.dll
 0002:00000230       __imp_SetFilePointerEx     0000000180020230     kernel32:KERNEL32.dll
 0002:00000238       __imp_CloseHandle          0000000180020238     kernel32:KERNEL32.dll
 0002:00000240       __imp_CreateFileW          0000000180020240     kernel32:KERNEL32.dll
 0002:00000248       __imp_GetSystemInfo        0000000180020248     kernel32:KERNEL32.dll
 0002:00000250       __imp_VirtualProtect       0000000180020250     kernel32:KERNEL32.dll
 0002:00000258       __imp_LoadLibraryExA       0000000180020258     kernel32:KERNEL32.dll
 0002:00000260       \177KERNEL32_NULL_THUNK_DATA 0000000180020260     kernel32:KERNEL32.dll
 0002:00000268       __guard_check_icall_fptr   0000000180020268     LIBCMT:guard_support.obj
 0002:00000270       __guard_dispatch_icall_fptr 0000000180020270     LIBCMT:guard_support.obj
 0002:00000278       __xc_a                     0000000180020278     LIBCMT:initializers.obj
 0002:00000280       _register_scrypt_          0000000180020280     scrypt_node.obj
 0002:00000288       __xc_z                     0000000180020288     LIBCMT:initializers.obj
 0002:00000290       __xi_a                     0000000180020290     LIBCMT:initializers.obj
 0002:00000298       __acrt_stdio_initializer   0000000180020298     libucrt:stdio_initializer.obj
 0002:000002a0       __acrt_multibyte_initializer 00000001800202a0     libucrt:multibyte_initializer.obj
 0002:000002a8       __acrt_tran_fma3_initializer 00000001800202a8     libucrt:fma3_initializer.obj
 0002:000002b0       __xi_z                     00000001800202b0     LIBCMT:initializers.obj
 0002:000002b8       __xp_a                     00000001800202b8     LIBCMT:initializers.obj
 0002:000002c0       __acrt_locale_terminator   00000001800202c0     libucrt:locale_initializer.obj
 0002:000002c8       __dcrt_console_output_terminator 00000001800202c8     libucrt:console_output_initializer.obj
 0002:000002d0       __acrt_stdio_terminator    00000001800202d0     libucrt:stdio_initializer.obj
 0002:000002d8       __xp_z                     00000001800202d8     LIBCMT:initializers.obj
 0002:000002e0       __xt_a                     00000001800202e0     LIBCMT:initializers.obj
 0002:000002e8       __xt_z                     00000001800202e8     LIBCMT:initializers.obj
 0002:000002f0       __sz_node_exe              00000001800202f0     node:node.exe
 0002:00000308       ??_7exception@std@@6B@     0000000180020308     libcpmt:xthrow.obj
 0002:00000318       ??_C@_0BC@EOODALEL@Unknown?5exception?$AA@ 0000000180020318     libcpmt:xthrow.obj
 0002:00000338       ??_7bad_alloc@std@@6B@     0000000180020338     libcpmt:xthrow.obj
 0002:00000348       ??_C@_0P@GHFPNOJB@bad?5allocation?$AA@ 0000000180020348     libcpmt:xthrow.obj
 0002:00000360       ??_7logic_error@std@@6B@   0000000180020360     libcpmt:xthrow.obj
 0002:00000378       ??_7length_error@std@@6B@  0000000180020378     libcpmt:xthrow.obj
 0002:00000388       _pRawDllMain               0000000180020388     LIBCMT:dll_dllmain.obj
 0002:00000388       _pDefaultRawDllMain        0000000180020388     LIBCMT:dll_dllmain.obj
 0002:00000398       ??_7type_info@@6B@         0000000180020398     LIBCMT:std_type_info_static.obj
 0002:000003b8       ??_7bad_array_new_length@std@@6B@ 00000001800203b8     LIBCMT:throw_bad_alloc.obj
 0002:000003c8       ??_C@_0BF@KINCDENJ@bad?5array?5new?5length?$AA@ 00000001800203c8     LIBCMT:throw_bad_alloc.obj
 0002:00000478       _pDestructExceptionObject  0000000180020478     libvcruntime:ehhelpers.obj
 0002:000004c8       ??_7bad_exception@std@@6B@ 00000001800204c8     libvcruntime:frame.obj
 0002:000004d8       ??_C@_0O@DPKOEFFH@bad?5exception?$AA@ 00000001800204d8     libvcruntime:frame.obj
 0002:00000500       ??_C@_1DM@KHCHBNEB@?$AAa?$AAp?$AAi?$AA?9?$AAm?$AAs?$AA?9?$AAw?$AAi?$AAn?$AA?9?$AAc?$AAo?$AAr?$AAe?$AA?9?$AAf?$AAi?$AAb?$AAe?$AAr?$AAs?$AA?9?$AAl?$AA1?$AA?9?$AA1?$AA?9?$AA1?$AA?$AA@ 0000000180020500     libvcruntime:winapi_downlevel.obj
 0002:00000540       ??_C@_1DK@LPPGFMPP@?$AAa?$AAp?$AAi?$AA?9?$AAm?$AAs?$AA?9?$AAw?$AAi?$AAn?$AA?9?$AAc?$AAo?$AAr?$AAe?$AA?9?$AAs?$AAy?$AAn?$AAc?$AAh?$AA?9?$AAl?$AA1?$AA?9?$AA2?$AA?9?$AA0?$AA?$AA@ 0000000180020540     libvcruntime:winapi_downlevel.obj
 0002:00000580       ??_C@_1BC@GDMECMAK@?$AAk?$AAe?$AAr?$AAn?$AAe?$AAl?$AA3?$AA2?$AA?$AA@ 0000000180020580     libvcruntime:winapi_downlevel.obj
 0002:00000598       ??_C@_1BA@PFFKHIOG@?$AAa?$AAp?$AAi?$AA?9?$AAm?$AAs?$AA?9?$AA?$AA@ 0000000180020598     libvcruntime:winapi_downlevel.obj
 0002:000005a8       ??_C@_1BA@IAIFMGEF@?$AAe?$AAx?$AAt?$AA?9?$AAm?$AAs?$AA?9?$AA?$AA@ 00000001800205a8     libvcruntime:winapi_downlevel.obj
 0002:000005c0       ??_C@_08KNHFBNJ@FlsAlloc?$AA@ 00000001800205c0     libvcruntime:winapi_downlevel.obj
 0002:000005d8       ??_C@_07PEJMOBNF@FlsFree?$AA@ 00000001800205d8     libvcruntime:winapi_downlevel.obj
 0002:000005e8       ??_C@_0M@GDNOONDI@FlsGetValue?$AA@ 00000001800205e8     libvcruntime:winapi_downlevel.obj
 0002:00000600       ??_C@_0M@JCPCPOEF@FlsSetValue?$AA@ 0000000180020600     libvcruntime:winapi_downlevel.obj
 0002:00000618       ??_C@_0BM@HCFOFFN@InitializeCriticalSectionEx?$AA@ 0000000180020618     libvcruntime:winapi_downlevel.obj
 0002:00000970       ??_C@_08EHJDFFNH@__based?$CI?$AA@ 0000000180020970     libvcruntime:undname.obj
 0002:00000980       ??_C@_07KOLFKCDI@__cdecl?$AA@ 0000000180020980     libvcruntime:undname.obj
 0002:00000988       ??_C@_08GHMPAG@__pascal?$AA@ 0000000180020988     libvcruntime:undname.obj
 0002:00000998       ??_C@_09IFJBGAPI@__stdcall?$AA@ 0000000180020998     libvcruntime:undname.obj
 0002:000009a8       ??_C@_0L@NPHFGOKO@__thiscall?$AA@ 00000001800209a8     libvcruntime:undname.obj
 0002:000009b8       ??_C@_0L@JMKHOMEK@__fastcall?$AA@ 00000001800209b8     libvcruntime:undname.obj
 0002:000009c8       ??_C@_0N@BCKKPABJ@__vectorcall?$AA@ 00000001800209c8     libvcruntime:undname.obj
 0002:000009d8       ??_C@_09HIJEGCPM@__clrcall?$AA@ 00000001800209d8     libvcruntime:undname.obj
 0002:000009e4       ??_C@_06GHPCKEAG@__eabi?$AA@ 00000001800209e4     libvcruntime:undname.obj
 0002:000009f0       ??_C@_07EECFKIPL@__swift?$AA@ 00000001800209f0     libvcruntime:undname.obj
 0002:000009f8       ??_C@_07JOMMBBKO@__ptr64?$AA@ 00000001800209f8     libvcruntime:undname.obj
 0002:00000a00       ??_C@_0L@PILCLIHE@__restrict?$AA@ 0000000180020a00     libvcruntime:undname.obj
 0002:00000a10       ??_C@_0M@GFIIJFMG@__unaligned?$AA@ 0000000180020a10     libvcruntime:undname.obj
 0002:00000a20       ??_C@_09DHDLOLLB@restrict?$CI?$AA@ 0000000180020a20     libvcruntime:undname.obj
 0002:00000a2a       ??_C@_00CNPNBAHC@?$AA@     0000000180020a2a     libvcruntime:undname.obj
 0002:00000a2c       ??_C@_04NIHEBCM@?5new?$AA@ 0000000180020a2c     libvcruntime:undname.obj
 0002:00000a38       ??_C@_07FPCDHGMM@?5delete?$AA@ 0000000180020a38     libvcruntime:undname.obj
 0002:00000a40       ??_C@_01NEMOKFLO@?$DN?$AA@ 0000000180020a40     libvcruntime:undname.obj
 0002:00000a44       ??_C@_02GPIOPFAK@?$DO?$DO?$AA@ 0000000180020a44     libvcruntime:undname.obj
 0002:00000a48       ??_C@_02FODMEDOG@?$DM?$DM?$AA@ 0000000180020a48     libvcruntime:undname.obj
 0002:00000a4c       ??_C@_01DCLJPIOD@?$CB?$AA@ 0000000180020a4c     libvcruntime:undname.obj
 0002:00000a50       ??_C@_02EGOFBIJA@?$DN?$DN?$AA@ 0000000180020a50     libvcruntime:undname.obj
 0002:00000a54       ??_C@_02FDNJECIE@?$CB?$DN?$AA@ 0000000180020a54     libvcruntime:undname.obj
 0002:00000a58       ??_C@_02GPECMEKF@?$FL?$FN?$AA@ 0000000180020a58     libvcruntime:undname.obj
 0002:00000a60       ??_C@_08LHJFAFGD@operator?$AA@ 0000000180020a60     libvcruntime:undname.obj
 0002:00000a6c       ??_C@_02HBOOOICD@?9?$DO?$AA@ 0000000180020a6c     libvcruntime:undname.obj
 0002:00000a70       ??_C@_01NBENCBCI@?$CK?$AA@ 0000000180020a70     libvcruntime:undname.obj
 0002:00000a74       ??_C@_02ECNGHCIF@?$CL?$CL?$AA@ 0000000180020a74     libvcruntime:undname.obj
 0002:00000a78       ??_C@_02BAABKJLB@?9?9?$AA@ 0000000180020a78     libvcruntime:undname.obj
 0002:00000a7c       ??_C@_01JOAMLHOP@?9?$AA@   0000000180020a7c     libvcruntime:undname.obj
 0002:00000a80       ??_C@_01MIFGBAGJ@?$CL?$AA@ 0000000180020a80     libvcruntime:undname.obj
 0002:00000a84       ??_C@_01HNPIGOCE@?$CG?$AA@ 0000000180020a84     libvcruntime:undname.obj
 0002:00000a88       ??_C@_03MNHNFDLC@?9?$DO?$CK?$AA@ 0000000180020a88     libvcruntime:undname.obj
 0002:00000a8c       ??_C@_01KMDKNFGN@?1?$AA@   0000000180020a8c     libvcruntime:undname.obj
 0002:00000a90       ??_C@_01FGNFDNOH@?$CF?$AA@ 0000000180020a90     libvcruntime:undname.obj
 0002:00000a94       ??_C@_01MNNFJEPP@?$DM?$AA@ 0000000180020a94     libvcruntime:undname.obj
 0002:00000a98       ??_C@_02EHCHHCKH@?$DM?$DN?$AA@ 0000000180020a98     libvcruntime:undname.obj
 0002:00000a9c       ??_C@_01PPODPGHN@?$DO?$AA@ 0000000180020a9c     libvcruntime:undname.obj
 0002:00000aa0       ??_C@_02EEKDKGMJ@?$DO?$DN?$AA@ 0000000180020aa0     libvcruntime:undname.obj
 0002:00000aa4       ??_C@_01IHBHIGKO@?0?$AA@   0000000180020aa4     libvcruntime:undname.obj
 0002:00000aa8       ??_C@_02HCKGKOFO@?$CI?$CJ?$AA@ 0000000180020aa8     libvcruntime:undname.obj
 0002:00000aac       ??_C@_01PJKLJHI@?$HO?$AA@  0000000180020aac     libvcruntime:undname.obj
 0002:00000ab0       ??_C@_01JKBOJNNK@?$FO?$AA@ 0000000180020ab0     libvcruntime:undname.obj
 0002:00000ab4       ??_C@_01DNKMNLPK@?$HM?$AA@ 0000000180020ab4     libvcruntime:undname.obj
 0002:00000ab8       ??_C@_02PPKAJPJL@?$CG?$CG?$AA@ 0000000180020ab8     libvcruntime:undname.obj
 0002:00000abc       ??_C@_02NONPIBCD@?$HM?$HM?$AA@ 0000000180020abc     libvcruntime:undname.obj
 0002:00000ac0       ??_C@_02FPIMKNGF@?$CK?$DN?$AA@ 0000000180020ac0     libvcruntime:undname.obj
 0002:00000ac4       ??_C@_02FOEOMHFC@?$CL?$DN?$AA@ 0000000180020ac4     libvcruntime:undname.obj
 0002:00000ac8       ??_C@_02FKMDLLOA@?9?$DN?$AA@ 0000000180020ac8     libvcruntime:undname.obj
 0002:00000acc       ??_C@_02FJEHGPIO@?1?$DN?$AA@ 0000000180020acc     libvcruntime:undname.obj
 0002:00000ad0       ??_C@_02FENAOKFI@?$CF?$DN?$AA@ 0000000180020ad0     libvcruntime:undname.obj
 0002:00000ad4       ??_C@_03IKFCCPFF@?$DO?$DO?$DN?$AA@ 0000000180020ad4     libvcruntime:undname.obj
 0002:00000ad8       ??_C@_03CDNPDDLA@?$DM?$DM?$DN?$AA@ 0000000180020ad8     libvcruntime:undname.obj
 0002:00000adc       ??_C@_02FGJGFEAB@?$CG?$DN?$AA@ 0000000180020adc     libvcruntime:undname.obj
 0002:00000ae0       ??_C@_02DHLNPPGH@?$HM?$DN?$AA@ 0000000180020ae0     libvcruntime:undname.obj
 0002:00000ae4       ??_C@_02MHEGNOJ@?$FO?$DN?$AA@ 0000000180020ae4     libvcruntime:undname.obj
 0002:00000ae8       ??_C@_09IFPLHPGF@?$GAvftable?8?$AA@ 0000000180020ae8     libvcruntime:undname.obj
 0002:00000af8       ??_C@_09BLBHBJP@?$GAvbtable?8?$AA@ 0000000180020af8     libvcruntime:undname.obj
 0002:00000b08       ??_C@_07FEEIOKP@?$GAvcall?8?$AA@ 0000000180020b08     libvcruntime:undname.obj
 0002:00000b10       ??_C@_08LLFFHHDJ@?$GAtypeof?8?$AA@ 0000000180020b10     libvcruntime:undname.obj
 0002:00000b20       ??_C@_0BF@KDPPACIK@?$GAlocal?5static?5guard?8?$AA@ 0000000180020b20     libvcruntime:undname.obj
 0002:00000b38       ??_C@_08OBABFOLI@?$GAstring?8?$AA@ 0000000180020b38     libvcruntime:undname.obj
 0002:00000b48       ??_C@_0BD@JDLKDPAB@?$GAvbase?5destructor?8?$AA@ 0000000180020b48     libvcruntime:undname.obj
 0002:00000b60       ??_C@_0BN@DEGPLNFK@?$GAvector?5deleting?5destructor?8?$AA@ 0000000180020b60     libvcruntime:undname.obj
 0002:00000b80       ??_C@_0BO@OBMKPJIG@?$GAdefault?5constructor?5closure?8?$AA@ 0000000180020b80     libvcruntime:undname.obj
 0002:00000ba0       ??_C@_0BN@IMDCHIKM@?$GAscalar?5deleting?5destructor?8?$AA@ 0000000180020ba0     libvcruntime:undname.obj
 0002:00000bc0       ??_C@_0BO@PFGOCPJJ@?$GAvector?5constructor?5iterator?8?$AA@ 0000000180020bc0     libvcruntime:undname.obj
 0002:00000be0       ??_C@_0BN@LFPFMEDL@?$GAvector?5destructor?5iterator?8?$AA@ 0000000180020be0     libvcruntime:undname.obj
 0002:00000c00       ??_C@_0CE@IKBNEHA@?$GAvector?5vbase?5constructor?5iterat@ 0000000180020c00     libvcruntime:undname.obj
 0002:00000c28       ??_C@_0BL@NILFHHPC@?$GAvirtual?5displacement?5map?8?$AA@ 0000000180020c28     libvcruntime:undname.obj
 0002:00000c48       ??_C@_0CB@JONCMFFK@?$GAeh?5vector?5constructor?5iterator?8@ 0000000180020c48     libvcruntime:undname.obj
 0002:00000c70       ??_C@_0CA@GCEOPDGL@?$GAeh?5vector?5destructor?5iterator?8?$AA@ 0000000180020c70     libvcruntime:undname.obj
 0002:00000c90       ??_C@_0CH@OOJPLCPH@?$GAeh?5vector?5vbase?5constructor?5ite@ 0000000180020c90     libvcruntime:undname.obj
 0002:00000cb8       ??_C@_0BL@LLKPOHJI@?$GAcopy?5constructor?5closure?8?$AA@ 0000000180020cb8     libvcruntime:undname.obj
 0002:00000cd8       ??_C@_0BA@KBCDOMBN@?$GAudt?5returning?8?$AA@ 0000000180020cd8     libvcruntime:undname.obj
 0002:00000ce8       ??_C@_03KLGMFNMG@?$GAEH?$AA@ 0000000180020ce8     libvcruntime:undname.obj
 0002:00000cec       ??_C@_05KHLCHHI@?$GARTTI?$AA@ 0000000180020cec     libvcruntime:undname.obj
 0002:00000cf8       ??_C@_0BA@KKLDJDLB@?$GAlocal?5vftable?8?$AA@ 0000000180020cf8     libvcruntime:undname.obj
 0002:00000d08       ??_C@_0CE@IIHCMGGL@?$GAlocal?5vftable?5constructor?5closu@ 0000000180020d08     libvcruntime:undname.obj
 0002:00000d2c       ??_C@_06FHBGPFGH@?5new?$FL?$FN?$AA@ 0000000180020d2c     libvcruntime:undname.obj
 0002:00000d38       ??_C@_09LBNFPBCA@?5delete?$FL?$FN?$AA@ 0000000180020d38     libvcruntime:undname.obj
 0002:00000d48       ??_C@_0P@HJKNJFNN@?$GAomni?5callsig?8?$AA@ 0000000180020d48     libvcruntime:undname.obj
 0002:00000d58       ??_C@_0BL@CNOONJFP@?$GAplacement?5delete?5closure?8?$AA@ 0000000180020d58     libvcruntime:undname.obj
 0002:00000d78       ??_C@_0BN@CKNJLHMB@?$GAplacement?5delete?$FL?$FN?5closure?8?$AA@ 0000000180020d78     libvcruntime:undname.obj
 0002:00000d98       ??_C@_0CG@CFDHKGGD@?$GAmanaged?5vector?5constructor?5iter@ 0000000180020d98     libvcruntime:undname.obj
 0002:00000dc0       ??_C@_0CF@IMGKMJNO@?$GAmanaged?5vector?5destructor?5itera@ 0000000180020dc0     libvcruntime:undname.obj
 0002:00000de8       ??_C@_0CG@HLDDJMAG@?$GAeh?5vector?5copy?5constructor?5iter@ 0000000180020de8     libvcruntime:undname.obj
 0002:00000e10       ??_C@_0CM@FCBBDIGB@?$GAeh?5vector?5vbase?5copy?5constructo@ 0000000180020e10     libvcruntime:undname.obj
 0002:00000e40       ??_C@_0BL@CLIPGLGB@?$GAdynamic?5initializer?5for?5?8?$AA@ 0000000180020e40     libvcruntime:undname.obj
 0002:00000e60       ??_C@_0CB@PDBIFEP@?$GAdynamic?5atexit?5destructor?5for?5?8@ 0000000180020e60     libvcruntime:undname.obj
 0002:00000e88       ??_C@_0CD@CGAJBKEJ@?$GAvector?5copy?5constructor?5iterato@ 0000000180020e88     libvcruntime:undname.obj
 0002:00000eb0       ??_C@_0CJ@GJELGAMM@?$GAvector?5vbase?5copy?5constructor?5i@ 0000000180020eb0     libvcruntime:undname.obj
 0002:00000ee0       ??_C@_0CL@FGIJHLCE@?$GAmanaged?5vector?5copy?5constructor@ 0000000180020ee0     libvcruntime:undname.obj
 0002:00000f10       ??_C@_0BM@PMGGMLDN@?$GAlocal?5static?5thread?5guard?8?$AA@ 0000000180020f10     libvcruntime:undname.obj
 0002:00000f30       ??_C@_0N@BDNMDMOL@operator?5?$CC?$CC?5?$AA@ 0000000180020f30     libvcruntime:undname.obj
 0002:00000f40       ??_C@_0BC@GGEBGALA@operator?5co_await?$AA@ 0000000180020f40     libvcruntime:undname.obj
 0002:00000f58       ??_C@_0BC@DAFEJGAK@?5Type?5Descriptor?8?$AA@ 0000000180020f58     libvcruntime:undname.obj
 0002:00000f70       ??_C@_0BM@LDKODKLH@?5Base?5Class?5Descriptor?5at?5?$CI?$AA@ 0000000180020f70     libvcruntime:undname.obj
 0002:00000f90       ??_C@_0BD@LGICGFMM@?5Base?5Class?5Array?8?$AA@ 0000000180020f90     libvcruntime:undname.obj
 0002:00000fa8       ??_C@_0BN@MECKDCOJ@?5Class?5Hierarchy?5Descriptor?8?$AA@ 0000000180020fa8     libvcruntime:undname.obj
 0002:00000fc8       ??_C@_0BK@CFCOFLF@?5Complete?5Object?5Locator?8?$AA@ 0000000180020fc8     libvcruntime:undname.obj
 0002:00000ff0       ??_C@_0EA@FCLIIPNN@Visual?5C?$CL?$CL?5CRT?3?5Not?5enough?5memor@ 0000000180020ff0     libucrt:strerror.obj
 0002:00001030       ??_C@_1FE@LHBLIKM@?$AAA?$AAs?$AAs?$AAe?$AAr?$AAt?$AAi?$AAo?$AAn?$AA?5?$AAf?$AAa?$AAi?$AAl?$AAe?$AAd?$AA?3?$AA?5?$AA?$CF?$AAT?$AAs?$AA?0?$AA?5?$AAf?$AAi?$AAl?$AAe?$AA?5?$AA?$CF?$AAT?$AAs?$AA?0@ 0000000180021030     libucrt:assert.obj
 0002:00001090       ??_C@_1EK@MBDPDCGA@?$AAM?$AAi?$AAc?$AAr?$AAo?$AAs?$AAo?$AAf?$AAt?$AA?5?$AAV?$AAi?$AAs?$AAu?$AAa?$AAl?$AA?5?$AAC?$AA?$CL?$AA?$CL?$AA?5?$AAR?$AAu?$AAn?$AAt?$AAi?$AAm?$AAe?$AA?5?$AAL?$AAi?$AAb@ 0000000180021090     libucrt:assert.obj
 0002:000010e0       ??_C@_1CE@OJBNHDMO@?$AAA?$AAs?$AAs?$AAe?$AAr?$AAt?$AAi?$AAo?$AAn?$AA?5?$AAf?$AAa?$AAi?$AAl?$AAe?$AAd?$AA?$CB?$AA?$AA@ 00000001800210e0     libucrt:assert.obj
 0002:00001108       ??_C@_1BE@PHKBBGE@?$AAP?$AAr?$AAo?$AAg?$AAr?$AAa?$AAm?$AA?3?$AA?5?$AA?$AA@ 0000000180021108     libucrt:assert.obj
 0002:00001120       ??_C@_1O@HEMHKNDC@?$AAF?$AAi?$AAl?$AAe?$AA?3?$AA?5?$AA?$AA@ 0000000180021120     libucrt:assert.obj
 0002:00001130       ??_C@_1O@KCAFKHJE@?$AAL?$AAi?$AAn?$AAe?$AA?3?$AA?5?$AA?$AA@ 0000000180021130     libucrt:assert.obj
 0002:00001140       ??_C@_1BK@PEDCIPMA@?$AAE?$AAx?$AAp?$AAr?$AAe?$AAs?$AAs?$AAi?$AAo?$AAn?$AA?3?$AA?5?$AA?$AA@ 0000000180021140     libucrt:assert.obj
 0002:00001160       ??_C@_1OA@EGMLFBHJ@?$AAF?$AAo?$AAr?$AA?5?$AAi?$AAn?$AAf?$AAo?$AAr?$AAm?$AAa?$AAt?$AAi?$AAo?$AAn?$AA?5?$AAo?$AAn?$AA?5?$AAh?$AAo?$AAw?$AA?5?$AAy?$AAo?$AAu?$AAr?$AA?5?$AAp?$AAr?$AAo?$AAg@ 0000000180021160     libucrt:assert.obj
 0002:00001240       ??_C@_1HK@POCJMFGK@?$AA?$CI?$AAP?$AAr?$AAe?$AAs?$AAs?$AA?5?$AAR?$AAe?$AAt?$AAr?$AAy?$AA?5?$AAt?$AAo?$AA?5?$AAd?$AAe?$AAb?$AAu?$AAg?$AA?5?$AAt?$AAh?$AAe?$AA?5?$AAa?$AAp?$AAp?$AAl?$AAi?$AAc@ 0000000180021240     libucrt:assert.obj
 0002:000012c0       ??_C@_17LGKOMLJ@?$AA?4?$AA?4?$AA?4?$AA?$AA@ 00000001800212c0     libucrt:assert.obj
 0002:000012c8       ??_C@_13LBAGMAIH@?$AA?6?$AA?$AA@ 00000001800212c8     libucrt:assert.obj
 0002:000012cc       ??_C@_15IABLJNFO@?$AA?6?$AA?6?$AA?$AA@ 00000001800212cc     libucrt:assert.obj
 0002:000012d8       ??_C@_1CO@EAEJAADC@?$AA?$DM?$AAp?$AAr?$AAo?$AAg?$AAr?$AAa?$AAm?$AA?5?$AAn?$AAa?$AAm?$AAe?$AA?5?$AAu?$AAn?$AAk?$AAn?$AAo?$AAw?$AAn?$AA?$DO?$AA?$AA@ 00000001800212d8     libucrt:assert.obj
 0002:00001470       standard_lookup_table      0000000180021470     libucrt:output.obj
 0002:000014d0       ??_C@_1O@CEDCILHN@?$AA?$CI?$AAn?$AAu?$AAl?$AAl?$AA?$CJ?$AA?$AA@ 00000001800214d0     libucrt:output.obj
 0002:000014e0       ??_C@_06OJHGLDPL@?$CInull?$CJ?$AA@ 00000001800214e0     libucrt:output.obj
 0002:000014f0       __acrt_exception_action_table 00000001800214f0     libucrt:exception_filter.obj
 0002:000015b0       __acrt_signal_action_table_count 00000001800215b0     libucrt:exception_filter.obj
 0002:000015b8       __acrt_signal_action_first_fpe_index 00000001800215b8     libucrt:exception_filter.obj
 0002:000015c0       __acrt_signal_action_fpe_count 00000001800215c0     libucrt:exception_filter.obj
 0002:000015c8       ??_C@_1BI@BGOHAHKC@?$AAm?$AAs?$AAc?$AAo?$AAr?$AAe?$AAe?$AA?4?$AAd?$AAl?$AAl?$AA?$AA@ 00000001800215c8     libucrt:exit.obj
 0002:000015e0       ??_C@_0P@MIGLKIOC@CorExitProcess?$AA@ 00000001800215e0     libucrt:exit.obj
 0002:000016f0       _sys_errlist               00000001800216f0     libucrt:syserr.obj
 0002:00001850       ??_C@_08INEPGKHH@No?5error?$AA@ 0000000180021850     libucrt:syserr.obj
 0002:00001860       ??_C@_0BI@BJFCGOHL@Operation?5not?5permitted?$AA@ 0000000180021860     libucrt:syserr.obj
 0002:00001878       ??_C@_0BK@FMDHKPNF@No?5such?5file?5or?5directory?$AA@ 0000000180021878     libucrt:syserr.obj
 0002:00001898       ??_C@_0BA@FKIAIBGA@No?5such?5process?$AA@ 0000000180021898     libucrt:syserr.obj
 0002:000018a8       ??_C@_0BK@FJBOAFDK@Interrupted?5function?5call?$AA@ 00000001800218a8     libucrt:syserr.obj
 0002:000018c8       ??_C@_0BD@KKNFOBBD@Input?1output?5error?$AA@ 00000001800218c8     libucrt:syserr.obj
 0002:000018e0       ??_C@_0BK@DPKMCKJ@No?5such?5device?5or?5address?$AA@ 00000001800218e0     libucrt:syserr.obj
 0002:00001900       ??_C@_0BC@MFFGCDFL@Arg?5list?5too?5long?$AA@ 0000000180021900     libucrt:syserr.obj
 0002:00001918       ??_C@_0BC@HKPNECK@Exec?5format?5error?$AA@ 0000000180021918     libucrt:syserr.obj
 0002:00001930       ??_C@_0BE@NFGDDCEF@Bad?5file?5descriptor?$AA@ 0000000180021930     libucrt:syserr.obj
 0002:00001948       ??_C@_0BD@LOHELEP@No?5child?5processes?$AA@ 0000000180021948     libucrt:syserr.obj
 0002:00001960       ??_C@_0CB@EPFKGNAK@Resource?5temporarily?5unavailable@ 0000000180021960     libucrt:syserr.obj
 0002:00001988       ??_C@_0BB@IMDKMPFB@Not?5enough?5space?$AA@ 0000000180021988     libucrt:syserr.obj
 0002:000019a0       ??_C@_0BC@HFNFNKAI@Permission?5denied?$AA@ 00000001800219a0     libucrt:syserr.obj
 0002:000019b8       ??_C@_0M@LOEHLCJD@Bad?5address?$AA@ 00000001800219b8     libucrt:syserr.obj
 0002:000019c8       ??_C@_0O@NIPGCINC@Unknown?5error?$AA@ 00000001800219c8     libucrt:syserr.obj
 0002:000019d8       ??_C@_0BA@BIBLIOEK@Resource?5device?$AA@ 00000001800219d8     libucrt:syserr.obj
 0002:000019e8       ??_C@_0M@NAAJNNGH@File?5exists?$AA@ 00000001800219e8     libucrt:syserr.obj
 0002:000019f8       ??_C@_0O@OAMDNOCP@Improper?5link?$AA@ 00000001800219f8     libucrt:syserr.obj
 0002:00001a08       ??_C@_0P@NLEIANHE@No?5such?5device?$AA@ 0000000180021a08     libucrt:syserr.obj
 0002:00001a18       ??_C@_0BA@CJBACOOL@Not?5a?5directory?$AA@ 0000000180021a18     libucrt:syserr.obj
 0002:00001a28       ??_C@_0P@NDHGCGKE@Is?5a?5directory?$AA@ 0000000180021a28     libucrt:syserr.obj
 0002:00001a38       ??_C@_0BB@HMGGCEBG@Invalid?5argument?$AA@ 0000000180021a38     libucrt:syserr.obj
 0002:00001a50       ??_C@_0BO@IIFBODJE@Too?5many?5open?5files?5in?5system?$AA@ 0000000180021a50     libucrt:syserr.obj
 0002:00001a70       ??_C@_0BE@INBJMKGG@Too?5many?5open?5files?$AA@ 0000000180021a70     libucrt:syserr.obj
 0002:00001a88       ??_C@_0CE@ONOKNLPF@Inappropriate?5I?1O?5control?5operat@ 0000000180021a88     libucrt:syserr.obj
 0002:00001ab0       ??_C@_0P@LFMMIPAE@File?5too?5large?$AA@ 0000000180021ab0     libucrt:syserr.obj
 0002:00001ac0       ??_C@_0BI@FEALHKLD@No?5space?5left?5on?5device?$AA@ 0000000180021ac0     libucrt:syserr.obj
 0002:00001ad8       ??_C@_0N@FEHLOILP@Invalid?5seek?$AA@ 0000000180021ad8     libucrt:syserr.obj
 0002:00001ae8       ??_C@_0BG@DDBFNKBH@Read?9only?5file?5system?$AA@ 0000000180021ae8     libucrt:syserr.obj
 0002:00001b00       ??_C@_0P@PKCJJLLM@Too?5many?5links?$AA@ 0000000180021b00     libucrt:syserr.obj
 0002:00001b10       ??_C@_0M@LHEPIIOM@Broken?5pipe?$AA@ 0000000180021b10     libucrt:syserr.obj
 0002:00001b20       ??_C@_0N@MMJPGLJK@Domain?5error?$AA@ 0000000180021b20     libucrt:syserr.obj
 0002:00001b30       ??_C@_0BB@FCBJFCAJ@Result?5too?5large?$AA@ 0000000180021b30     libucrt:syserr.obj
 0002:00001b48       ??_C@_0BK@JAEBMJJM@Resource?5deadlock?5avoided?$AA@ 0000000180021b48     libucrt:syserr.obj
 0002:00001b68       ??_C@_0BC@BEDIHIDK@Filename?5too?5long?$AA@ 0000000180021b68     libucrt:syserr.obj
 0002:00001b80       ??_C@_0BD@CLHBCGPB@No?5locks?5available?$AA@ 0000000180021b80     libucrt:syserr.obj
 0002:00001b98       ??_C@_0BJ@IHEHINLI@Function?5not?5implemented?$AA@ 0000000180021b98     libucrt:syserr.obj
 0002:00001bb8       ??_C@_0BE@ICMCHPHH@Directory?5not?5empty?$AA@ 0000000180021bb8     libucrt:syserr.obj
 0002:00001bd0       ??_C@_0BG@KLEAJEFJ@Illegal?5byte?5sequence?$AA@ 0000000180021bd0     libucrt:syserr.obj
 0002:00001be8       _sys_nerr                  0000000180021be8     libucrt:syserr.obj
 0002:00001bf0       __lc_time_c                0000000180021bf0     libucrt:nlsdata.obj
 0002:00001eb0       ??_C@_03KOEHGMDN@Sun?$AA@  0000000180021eb0     libucrt:nlsdata.obj
 0002:00001eb4       ??_C@_03PDAGKDH@Mon?$AA@   0000000180021eb4     libucrt:nlsdata.obj
 0002:00001eb8       ??_C@_03NAGEINEP@Tue?$AA@  0000000180021eb8     libucrt:nlsdata.obj
 0002:00001ebc       ??_C@_03MHOMLAJA@Wed?$AA@  0000000180021ebc     libucrt:nlsdata.obj
 0002:00001ec0       ??_C@_03IOFIKPDN@Thu?$AA@  0000000180021ec0     libucrt:nlsdata.obj
 0002:00001ec4       ??_C@_03IDIOELNC@Fri?$AA@  0000000180021ec4     libucrt:nlsdata.obj
 0002:00001ec8       ??_C@_03FEFJNEK@Sat?$AA@   0000000180021ec8     libucrt:nlsdata.obj
 0002:00001ecc       ??_C@_06OOPIFAJ@Sunday?$AA@ 0000000180021ecc     libucrt:nlsdata.obj
 0002:00001ed4       ??_C@_06JLEDEDGH@Monday?$AA@ 0000000180021ed4     libucrt:nlsdata.obj
 0002:00001ee0       ??_C@_07BAAGCFCM@Tuesday?$AA@ 0000000180021ee0     libucrt:nlsdata.obj
 0002:00001ee8       ??_C@_09DLIGFAKA@Wednesday?$AA@ 0000000180021ee8     libucrt:nlsdata.obj
 0002:00001ef8       ??_C@_08HACCIKIA@Thursday?$AA@ 0000000180021ef8     libucrt:nlsdata.obj
 0002:00001f04       ??_C@_06JECMNKMI@Friday?$AA@ 0000000180021f04     libucrt:nlsdata.obj
 0002:00001f10       ??_C@_08INBOOONO@Saturday?$AA@ 0000000180021f10     libucrt:nlsdata.obj
 0002:00001f1c       ??_C@_03JIHJHPIE@Jan?$AA@  0000000180021f1c     libucrt:nlsdata.obj
 0002:00001f20       ??_C@_03HJBDCHOM@Feb?$AA@  0000000180021f20     libucrt:nlsdata.obj
 0002:00001f24       ??_C@_03ODNJBKGA@Mar?$AA@  0000000180021f24     libucrt:nlsdata.obj
 0002:00001f28       ??_C@_03LEOLGMJP@Apr?$AA@  0000000180021f28     libucrt:nlsdata.obj
 0002:00001f2c       ??_C@_03CNMDKL@May?$AA@    0000000180021f2c     libucrt:nlsdata.obj
 0002:00001f30       ??_C@_03IDFGHECI@Jun?$AA@  0000000180021f30     libucrt:nlsdata.obj
 0002:00001f34       ??_C@_03LBGABGKK@Jul?$AA@  0000000180021f34     libucrt:nlsdata.obj
 0002:00001f38       ??_C@_03IFJFEIGA@Aug?$AA@  0000000180021f38     libucrt:nlsdata.obj
 0002:00001f3c       ??_C@_03GGCAPAJC@Sep?$AA@  0000000180021f3c     libucrt:nlsdata.obj
 0002:00001f40       ??_C@_03BMAOKBAD@Oct?$AA@  0000000180021f40     libucrt:nlsdata.obj
 0002:00001f44       ??_C@_03JPJOFNIA@Nov?$AA@  0000000180021f44     libucrt:nlsdata.obj
 0002:00001f48       ??_C@_03MKABNOCG@Dec?$AA@  0000000180021f48     libucrt:nlsdata.obj
 0002:00001f50       ??_C@_07CGJPFGJA@January?$AA@ 0000000180021f50     libucrt:nlsdata.obj
 0002:00001f58       ??_C@_08GNJGEPFN@February?$AA@ 0000000180021f58     libucrt:nlsdata.obj
 0002:00001f64       ??_C@_05HPCKOFNC@March?$AA@ 0000000180021f64     libucrt:nlsdata.obj
 0002:00001f6c       ??_C@_05DMJDNLEJ@April?$AA@ 0000000180021f6c     libucrt:nlsdata.obj
 0002:00001f74       ??_C@_04CNLMGBGM@June?$AA@ 0000000180021f74     libucrt:nlsdata.obj
 0002:00001f7c       ??_C@_04MIEPOIFP@July?$AA@ 0000000180021f7c     libucrt:nlsdata.obj
 0002:00001f84       ??_C@_06LBBHFDDG@August?$AA@ 0000000180021f84     libucrt:nlsdata.obj
 0002:00001f90       ??_C@_09BHHEALKD@September?$AA@ 0000000180021f90     libucrt:nlsdata.obj
 0002:00001fa0       ??_C@_07JJNFCEND@October?$AA@ 0000000180021fa0     libucrt:nlsdata.obj
 0002:00001fa8       ??_C@_08HCHEGEOA@November?$AA@ 0000000180021fa8     libucrt:nlsdata.obj
 0002:00001fb8       ??_C@_08EDHMEBNP@December?$AA@ 0000000180021fb8     libucrt:nlsdata.obj
 0002:00001fc4       ??_C@_02DEDBPAFC@AM?$AA@   0000000180021fc4     libucrt:nlsdata.obj
 0002:00001fc8       ??_C@_02CJNFDJBF@PM?$AA@   0000000180021fc8     libucrt:nlsdata.obj
 0002:00001fd0       ??_C@_08BPBNCDIB@MM?1dd?1yy?$AA@ 0000000180021fd0     libucrt:nlsdata.obj
 0002:00001fe0       ??_C@_0BE@CKGJFCPC@dddd?0?5MMMM?5dd?0?5yyyy?$AA@ 0000000180021fe0     libucrt:nlsdata.obj
 0002:00001ff8       ??_C@_08JCCMCCIL@HH?3mm?3ss?$AA@ 0000000180021ff8     libucrt:nlsdata.obj
 0002:00002008       ??_C@_17MBGCMIPB@?$AAS?$AAu?$AAn?$AA?$AA@ 0000000180022008     libucrt:nlsdata.obj
 0002:00002010       ??_C@_17KBOMKBF@?$AAM?$AAo?$AAn?$AA?$AA@ 0000000180022010     libucrt:nlsdata.obj
 0002:00002018       ??_C@_17BMKGEGOJ@?$AAT?$AAu?$AAe?$AA?$AA@ 0000000180022018     libucrt:nlsdata.obj
 0002:00002020       ??_C@_17CJEDCEPE@?$AAW?$AAe?$AAd?$AA?$AA@ 0000000180022020     libucrt:nlsdata.obj
 0002:00002028       ??_C@_17PDPHAADD@?$AAT?$AAh?$AAu?$AA?$AA@ 0000000180022028     libucrt:nlsdata.obj
 0002:00002030       ??_C@_17HFOLPPLP@?$AAF?$AAr?$AAi?$AA?$AA@ 0000000180022030     libucrt:nlsdata.obj
 0002:00002038       ??_C@_17GGIBDPIH@?$AAS?$AAa?$AAt?$AA?$AA@ 0000000180022038     libucrt:nlsdata.obj
 0002:00002040       ??_C@_1O@IHNHDHPB@?$AAS?$AAu?$AAn?$AAd?$AAa?$AAy?$AA?$AA@ 0000000180022040     libucrt:nlsdata.obj
 0002:00002050       ??_C@_1O@MMNBFLIA@?$AAM?$AAo?$AAn?$AAd?$AAa?$AAy?$AA?$AA@ 0000000180022050     libucrt:nlsdata.obj
 0002:00002060       ??_C@_1BA@ENFBFFEK@?$AAT?$AAu?$AAe?$AAs?$AAd?$AAa?$AAy?$AA?$AA@ 0000000180022060     libucrt:nlsdata.obj
 0002:00002070       ??_C@_1BE@EBOGMDOH@?$AAW?$AAe?$AAd?$AAn?$AAe?$AAs?$AAd?$AAa?$AAy?$AA?$AA@ 0000000180022070     libucrt:nlsdata.obj
 0002:00002088       ??_C@_1BC@HHMNLIHE@?$AAT?$AAh?$AAu?$AAr?$AAs?$AAd?$AAa?$AAy?$AA?$AA@ 0000000180022088     libucrt:nlsdata.obj
 0002:000020a0       ??_C@_1O@PDICJHAG@?$AAF?$AAr?$AAi?$AAd?$AAa?$AAy?$AA?$AA@ 00000001800220a0     libucrt:nlsdata.obj
 0002:000020b0       ??_C@_1BC@ENMNNPAJ@?$AAS?$AAa?$AAt?$AAu?$AAr?$AAd?$AAa?$AAy?$AA?$AA@ 00000001800220b0     libucrt:nlsdata.obj
 0002:000020c8       ??_C@_17DKNBKCHM@?$AAJ?$AAa?$AAn?$AA?$AA@ 00000001800220c8     libucrt:nlsdata.obj
 0002:000020d0       ??_C@_17LMDJEKJN@?$AAF?$AAe?$AAb?$AA?$AA@ 00000001800220d0     libucrt:nlsdata.obj
 0002:000020d8       ??_C@_17CKNLEDEC@?$AAM?$AAa?$AAr?$AA?$AA@ 00000001800220d8     libucrt:nlsdata.obj
 0002:000020e0       ??_C@_17LFPOIHDD@?$AAA?$AAp?$AAr?$AA?$AA@ 00000001800220e0     libucrt:nlsdata.obj
 0002:000020e8       ??_C@_17PNNKMEED@?$AAM?$AAa?$AAy?$AA?$AA@ 00000001800220e8     libucrt:nlsdata.obj
 0002:000020f0       ??_C@_17KCJGOCPB@?$AAJ?$AAu?$AAn?$AA?$AA@ 00000001800220f0     libucrt:nlsdata.obj
 0002:000020f8       ??_C@_17IJPCKHK@?$AAJ?$AAu?$AAl?$AA?$AA@ 00000001800220f8     libucrt:nlsdata.obj
 0002:00002100       ??_C@_17ICPELBCN@?$AAA?$AAu?$AAg?$AA?$AA@ 0000000180022100     libucrt:nlsdata.obj
 0002:00002108       ??_C@_17HCHCOKMG@?$AAS?$AAe?$AAp?$AA?$AA@ 0000000180022108     libucrt:nlsdata.obj
 0002:00002110       ??_C@_17FNLKOI@?$AAO?$AAc?$AAt?$AA?$AA@ 0000000180022110     libucrt:nlsdata.obj
 0002:00002118       ??_C@_17BBDMLCIG@?$AAN?$AAo?$AAv?$AA?$AA@ 0000000180022118     libucrt:nlsdata.obj
 0002:00002120       ??_C@_17EGKACKIF@?$AAD?$AAe?$AAc?$AA?$AA@ 0000000180022120     libucrt:nlsdata.obj
 0002:00002128       ??_C@_1BA@EFMEIEBA@?$AAJ?$AAa?$AAn?$AAu?$AAa?$AAr?$AAy?$AA?$AA@ 0000000180022128     libucrt:nlsdata.obj
 0002:00002138       ??_C@_1BC@JGDDFFAM@?$AAF?$AAe?$AAb?$AAr?$AAu?$AAa?$AAr?$AAy?$AA?$AA@ 0000000180022138     libucrt:nlsdata.obj
 0002:00002150       ??_C@_1M@IKEENEDF@?$AAM?$AAa?$AAr?$AAc?$AAh?$AA?$AA@ 0000000180022150     libucrt:nlsdata.obj
 0002:00002160       ??_C@_1M@GJNLMHFD@?$AAA?$AAp?$AAr?$AAi?$AAl?$AA?$AA@ 0000000180022160     libucrt:nlsdata.obj
 0002:00002170       ??_C@_19EPFLPGAP@?$AAJ?$AAu?$AAn?$AAe?$AA?$AA@ 0000000180022170     libucrt:nlsdata.obj
 0002:00002180       ??_C@_19BIFMLPCD@?$AAJ?$AAu?$AAl?$AAy?$AA?$AA@ 0000000180022180     libucrt:nlsdata.obj
 0002:00002190       ??_C@_1O@PAHLKOAC@?$AAA?$AAu?$AAg?$AAu?$AAs?$AAt?$AA?$AA@ 0000000180022190     libucrt:nlsdata.obj
 0002:000021a0       ??_C@_1BE@DKAAMBJL@?$AAS?$AAe?$AAp?$AAt?$AAe?$AAm?$AAb?$AAe?$AAr?$AA?$AA@ 00000001800221a0     libucrt:nlsdata.obj
 0002:000021b8       ??_C@_1BA@EPANDLNG@?$AAO?$AAc?$AAt?$AAo?$AAb?$AAe?$AAr?$AA?$AA@ 00000001800221b8     libucrt:nlsdata.obj
 0002:000021c8       ??_C@_1BC@BGLIFPF@?$AAN?$AAo?$AAv?$AAe?$AAm?$AAb?$AAe?$AAr?$AA?$AA@ 00000001800221c8     libucrt:nlsdata.obj
 0002:000021e0       ??_C@_1BC@FEMKIFH@?$AAD?$AAe?$AAc?$AAe?$AAm?$AAb?$AAe?$AAr?$AA?$AA@ 00000001800221e0     libucrt:nlsdata.obj
 0002:000021f4       ??_C@_15ODEHAHHF@?$AAA?$AAM?$AA?$AA@ 00000001800221f4     libucrt:nlsdata.obj
 0002:000021fc       ??_C@_15CLMNNGEL@?$AAP?$AAM?$AA?$AA@ 00000001800221fc     libucrt:nlsdata.obj
 0002:00002208       ??_C@_1BC@IEBCMHCM@?$AAM?$AAM?$AA?1?$AAd?$AAd?$AA?1?$AAy?$AAy?$AA?$AA@ 0000000180022208     libucrt:nlsdata.obj
 0002:00002220       ??_C@_1CI@KNAKOEBC@?$AAd?$AAd?$AAd?$AAd?$AA?0?$AA?5?$AAM?$AAM?$AAM?$AAM?$AA?5?$AAd?$AAd?$AA?0?$AA?5?$AAy?$AAy?$AAy?$AAy?$AA?$AA@ 0000000180022220     libucrt:nlsdata.obj
 0002:00002248       ??_C@_1BC@GDGBMEMK@?$AAH?$AAH?$AA?3?$AAm?$AAm?$AA?3?$AAs?$AAs?$AA?$AA@ 0000000180022248     libucrt:nlsdata.obj
 0002:00002260       ??_C@_1M@BMHNFIME@?$AAe?$AAn?$AA?9?$AAU?$AAS?$AA?$AA@ 0000000180022260     libucrt:nlsdata.obj
 0002:00002310       ??_C@_1EA@JGEFHKEI@?$AAa?$AAp?$AAi?$AA?9?$AAm?$AAs?$AA?9?$AAw?$AAi?$AAn?$AA?9?$AAc?$AAo?$AAr?$AAe?$AA?9?$AAd?$AAa?$AAt?$AAe?$AAt?$AAi?$AAm?$AAe?$AA?9?$AAl?$AA1?$AA?9?$AA1?$AA?9?$AA1?$AA?$AA@ 0000000180022310     libucrt:winapi_thunks.obj
 0002:00002350       ??_C@_1DI@IJCEHOCB@?$AAa?$AAp?$AAi?$AA?9?$AAm?$AAs?$AA?9?$AAw?$AAi?$AAn?$AA?9?$AAc?$AAo?$AAr?$AAe?$AA?9?$AAf?$AAi?$AAl?$AAe?$AA?9?$AAl?$AA1?$AA?9?$AA2?$AA?9?$AA2?$AA?$AA@ 0000000180022350     libucrt:winapi_thunks.obj
 0002:00002390       ??_C@_1EI@MPIAOHOC@?$AAa?$AAp?$AAi?$AA?9?$AAm?$AAs?$AA?9?$AAw?$AAi?$AAn?$AA?9?$AAc?$AAo?$AAr?$AAe?$AA?9?$AAl?$AAo?$AAc?$AAa?$AAl?$AAi?$AAz?$AAa?$AAt?$AAi?$AAo?$AAn?$AA?9?$AAl?$AA1?$AA?9@ 0000000180022390     libucrt:winapi_thunks.obj
 0002:000023e0       ??_C@_1FK@FPHCKFIE@?$AAa?$AAp?$AAi?$AA?9?$AAm?$AAs?$AA?9?$AAw?$AAi?$AAn?$AA?9?$AAc?$AAo?$AAr?$AAe?$AA?9?$AAl?$AAo?$AAc?$AAa?$AAl?$AAi?$AAz?$AAa?$AAt?$AAi?$AAo?$AAn?$AA?9?$AAo?$AAb?$AAs@ 00000001800223e0     libucrt:winapi_thunks.obj
 0002:00002440       ??_C@_1EM@DILCGIIO@?$AAa?$AAp?$AAi?$AA?9?$AAm?$AAs?$AA?9?$AAw?$AAi?$AAn?$AA?9?$AAc?$AAo?$AAr?$AAe?$AA?9?$AAp?$AAr?$AAo?$AAc?$AAe?$AAs?$AAs?$AAt?$AAh?$AAr?$AAe?$AAa?$AAd?$AAs?$AA?9?$AAl@ 0000000180022440     libucrt:winapi_thunks.obj
 0002:00002490       ??_C@_1DM@LNCGDDPN@?$AAa?$AAp?$AAi?$AA?9?$AAm?$AAs?$AA?9?$AAw?$AAi?$AAn?$AA?9?$AAc?$AAo?$AAr?$AAe?$AA?9?$AAs?$AAt?$AAr?$AAi?$AAn?$AAg?$AA?9?$AAl?$AA1?$AA?9?$AA1?$AA?9?$AA0?$AA?$AA@ 0000000180022490     libucrt:winapi_thunks.obj
 0002:000024d0       ??_C@_1DO@FPAPJEMD@?$AAa?$AAp?$AAi?$AA?9?$AAm?$AAs?$AA?9?$AAw?$AAi?$AAn?$AA?9?$AAc?$AAo?$AAr?$AAe?$AA?9?$AAs?$AAy?$AAs?$AAi?$AAn?$AAf?$AAo?$AA?9?$AAl?$AA1?$AA?9?$AA2?$AA?9?$AA1?$AA?$AA@ 00000001800224d0     libucrt:winapi_thunks.obj
 0002:00002510       ??_C@_1DK@NDHNAHIO@?$AAa?$AAp?$AAi?$AA?9?$AAm?$AAs?$AA?9?$AAw?$AAi?$AAn?$AA?9?$AAc?$AAo?$AAr?$AAe?$AA?9?$AAw?$AAi?$AAn?$AAr?$AAt?$AA?9?$AAl?$AA1?$AA?9?$AA1?$AA?9?$AA0?$AA?$AA@ 0000000180022510     libucrt:winapi_thunks.obj
 0002:00002550       ??_C@_1DM@KGHDGBCM@?$AAa?$AAp?$AAi?$AA?9?$AAm?$AAs?$AA?9?$AAw?$AAi?$AAn?$AA?9?$AAc?$AAo?$AAr?$AAe?$AA?9?$AAx?$AAs?$AAt?$AAa?$AAt?$AAe?$AA?9?$AAl?$AA2?$AA?9?$AA1?$AA?9?$AA0?$AA?$AA@ 0000000180022550     libucrt:winapi_thunks.obj
 0002:00002590       ??_C@_1EO@IJIOEFOH@?$AAa?$AAp?$AAi?$AA?9?$AAm?$AAs?$AA?9?$AAw?$AAi?$AAn?$AA?9?$AAr?$AAt?$AAc?$AAo?$AAr?$AAe?$AA?9?$AAn?$AAt?$AAu?$AAs?$AAe?$AAr?$AA?9?$AAw?$AAi?$AAn?$AAd?$AAo?$AAw?$AA?9@ 0000000180022590     libucrt:winapi_thunks.obj
 0002:000025e0       ??_C@_1FG@HHGEKANL@?$AAa?$AAp?$AAi?$AA?9?$AAm?$AAs?$AA?9?$AAw?$AAi?$AAn?$AA?9?$AAs?$AAe?$AAc?$AAu?$AAr?$AAi?$AAt?$AAy?$AA?9?$AAs?$AAy?$AAs?$AAt?$AAe?$AAm?$AAf?$AAu?$AAn?$AAc?$AAt?$AAi@ 00000001800225e0     libucrt:winapi_thunks.obj
 0002:00002640       ??_C@_1EG@DBIOJECG@?$AAe?$AAx?$AAt?$AA?9?$AAm?$AAs?$AA?9?$AAw?$AAi?$AAn?$AA?9?$AAn?$AAt?$AAu?$AAs?$AAe?$AAr?$AA?9?$AAd?$AAi?$AAa?$AAl?$AAo?$AAg?$AAb?$AAo?$AAx?$AA?9?$AAl?$AA1?$AA?9?$AA1@ 0000000180022640     libucrt:winapi_thunks.obj
 0002:00002690       ??_C@_1EO@FIHMJCLF@?$AAe?$AAx?$AAt?$AA?9?$AAm?$AAs?$AA?9?$AAw?$AAi?$AAn?$AA?9?$AAn?$AAt?$AAu?$AAs?$AAe?$AAr?$AA?9?$AAw?$AAi?$AAn?$AAd?$AAo?$AAw?$AAs?$AAt?$AAa?$AAt?$AAi?$AAo?$AAn?$AA?9@ 0000000180022690     libucrt:winapi_thunks.obj
 0002:000026e0       ??_C@_1BC@DNHGCMLG@?$AAa?$AAd?$AAv?$AAa?$AAp?$AAi?$AA3?$AA2?$AA?$AA@ 00000001800226e0     libucrt:winapi_thunks.obj
 0002:000026f8       ??_C@_1M@OAIMIKLP@?$AAn?$AAt?$AAd?$AAl?$AAl?$AA?$AA@ 00000001800226f8     libucrt:winapi_thunks.obj
 0002:00002710       ??_C@_1EG@DPGNFKGC@?$AAa?$AAp?$AAi?$AA?9?$AAm?$AAs?$AA?9?$AAw?$AAi?$AAn?$AA?9?$AAa?$AAp?$AAp?$AAm?$AAo?$AAd?$AAe?$AAl?$AA?9?$AAr?$AAu?$AAn?$AAt?$AAi?$AAm?$AAe?$AA?9?$AAl?$AA1?$AA?9?$AA1@ 0000000180022710     libucrt:winapi_thunks.obj
 0002:00002758       ??_C@_1O@BCCLBEOE@?$AAu?$AAs?$AAe?$AAr?$AA3?$AA2?$AA?$AA@ 0000000180022758     libucrt:winapi_thunks.obj
 0002:00002790       ??_C@_0BA@HNOPNCHB@GetActiveWindow?$AA@ 0000000180022790     libucrt:winapi_thunks.obj
 0002:000027a8       ??_C@_0BD@HHGDFDBJ@GetLastActivePopup?$AA@ 00000001800227a8     libucrt:winapi_thunks.obj
 0002:000027c8       ??_C@_0BI@DFKBFLJE@GetProcessWindowStation?$AA@ 00000001800227c8     libucrt:winapi_thunks.obj
 0002:000027e8       ??_C@_0BK@DEKFELLI@GetUserObjectInformationW?$AA@ 00000001800227e8     libucrt:winapi_thunks.obj
 0002:00002818       ??_C@_0O@KKBNKAPF@LCMapStringEx?$AA@ 0000000180022818     libucrt:winapi_thunks.obj
 0002:00002830       ??_C@_0BB@HBDEELFH@LocaleNameToLCID?$AA@ 0000000180022830     libucrt:winapi_thunks.obj
 0002:00002850       ??_C@_0M@CHKKJDAI@MessageBoxA?$AA@ 0000000180022850     libucrt:winapi_thunks.obj
 0002:00002868       ??_C@_0M@DLDCCGNP@MessageBoxW?$AA@ 0000000180022868     libucrt:winapi_thunks.obj
 0002:00002878       ??_C@_0CF@OJOFEIGO@AppPolicyGetProcessTerminationMe@ 0000000180022878     libucrt:winapi_thunks.obj
 0002:000028a8       ??_C@_0CE@OICFMIKE@AppPolicyGetShowDeveloperDiagnos@ 00000001800228a8     libucrt:winapi_thunks.obj
 0002:000028d0       ??_C@_0BL@ODDJNEDA@AppPolicyGetWindowingModel?$AA@ 00000001800228d0     libucrt:winapi_thunks.obj
 0002:000028ec       ??_C@_03OEIAHPBN@INF?$AA@  00000001800228ec     libucrt:cvt.obj
 0002:000028f0       ??_C@_03OJHLLCGB@inf?$AA@  00000001800228f0     libucrt:cvt.obj
 0002:000028f4       ??_C@_03LKNCIKJB@NAN?$AA@  00000001800228f4     libucrt:cvt.obj
 0002:000028f8       ??_C@_03LHCJEHON@nan?$AA@  00000001800228f8     libucrt:cvt.obj
 0002:00002900       ??_C@_09OFJJIMPC@NAN?$CISNAN?$CJ?$AA@ 0000000180022900     libucrt:cvt.obj
 0002:00002910       ??_C@_09IPFBKMDL@nan?$CIsnan?$CJ?$AA@ 0000000180022910     libucrt:cvt.obj
 0002:00002920       ??_C@_08IKHNHAJ@NAN?$CIIND?$CJ?$AA@ 0000000180022920     libucrt:cvt.obj
 0002:00002930       ??_C@_08OFCDMILK@nan?$CIind?$CJ?$AA@ 0000000180022930     libucrt:cvt.obj
 0002:0000293c       ??_C@_05KLBDPFGC@e?$CL000?$AA@ 000000018002293c     libucrt:cvt.obj
 0002:00002968       ??_C@_1M@HPNHIDJI@?$AAj?$AAa?$AA?9?$AAJ?$AAP?$AA?$AA@ 0000000180022968     libucrt:mbctype.obj
 0002:00002978       ??_C@_1M@BIBDDEMK@?$AAz?$AAh?$AA?9?$AAC?$AAN?$AA?$AA@ 0000000180022978     libucrt:mbctype.obj
 0002:00002988       ??_C@_1M@JLOOOEGK@?$AAk?$AAo?$AA?9?$AAK?$AAR?$AA?$AA@ 0000000180022988     libucrt:mbctype.obj
 0002:00002998       ??_C@_1M@CLNBBOPM@?$AAz?$AAh?$AA?9?$AAT?$AAW?$AA?$AA@ 0000000180022998     libucrt:mbctype.obj
 0002:000029b0       __newctype                 00000001800229b0     libucrt:ctype.obj
 0002:00002cb0       __newclmap                 0000000180022cb0     libucrt:ctype.obj
 0002:00002e30       __newcumap                 0000000180022e30     libucrt:ctype.obj
 0002:00002fb0       _wctype                    0000000180022fb0     libucrt:ctype.obj
 0002:000031b4       ??_C@_15PJPFLCCM@?$AAu?$AAk?$AA?$AA@ 00000001800231b4     libucrt:get_qualified_locale.obj
 0002:00004000       ??_C@_15EMKDOKLE@?$AAa?$AAr?$AA?$AA@ 0000000180024000     libucrt:lcidtoname_downlevel.obj
 0002:00004008       ??_C@_15KNPADPLH@?$AAb?$AAg?$AA?$AA@ 0000000180024008     libucrt:lcidtoname_downlevel.obj
 0002:00004010       ??_C@_15EDMHLDMO@?$AAc?$AAa?$AA?$AA@ 0000000180024010     libucrt:lcidtoname_downlevel.obj
 0002:00004018       ??_C@_1O@BPEAJADD@?$AAz?$AAh?$AA?9?$AAC?$AAH?$AAS?$AA?$AA@ 0000000180024018     libucrt:lcidtoname_downlevel.obj
 0002:00004028       ??_C@_15LJNHCMNK@?$AAc?$AAs?$AA?$AA@ 0000000180024028     libucrt:lcidtoname_downlevel.obj
 0002:00004030       ??_C@_15FOMCIDHG@?$AAd?$AAa?$AA?$AA@ 0000000180024030     libucrt:lcidtoname_downlevel.obj
 0002:00004038       ??_C@_15NBKABECB@?$AAd?$AAe?$AA?$AA@ 0000000180024038     libucrt:lcidtoname_downlevel.obj
 0002:00004040       ??_C@_15GHPEIIAO@?$AAe?$AAl?$AA?$AA@ 0000000180024040     libucrt:lcidtoname_downlevel.obj
 0002:00004048       ??_C@_15MNPNEAIF@?$AAe?$AAn?$AA?$AA@ 0000000180024048     libucrt:lcidtoname_downlevel.obj
 0002:00004050       ??_C@_15GPIOMPMH@?$AAe?$AAs?$AA?$AA@ 0000000180024050     libucrt:lcidtoname_downlevel.obj
 0002:00004058       ??_C@_15NGLOAKJC@?$AAf?$AAi?$AA?$AA@ 0000000180024058     libucrt:lcidtoname_downlevel.obj
 0002:00004060       ??_C@_15FBKGNKAM@?$AAf?$AAr?$AA?$AA@ 0000000180024060     libucrt:lcidtoname_downlevel.obj
 0002:00004068       ??_C@_15KGGCNEFK@?$AAh?$AAe?$AA?$AA@ 0000000180024068     libucrt:lcidtoname_downlevel.obj
 0002:00004070       ??_C@_15PGHLIDMF@?$AAh?$AAu?$AA?$AA@ 0000000180024070     libucrt:lcidtoname_downlevel.obj
 0002:00004078       ??_C@_15BIEMAPLM@?$AAi?$AAs?$AA?$AA@ 0000000180024078     libucrt:lcidtoname_downlevel.obj
 0002:00004080       ??_C@_15IFJLDHAF@?$AAi?$AAt?$AA?$AA@ 0000000180024080     libucrt:lcidtoname_downlevel.obj
 0002:00004088       ??_C@_15GEMIOCAG@?$AAj?$AAa?$AA?$AA@ 0000000180024088     libucrt:lcidtoname_downlevel.obj
 0002:00004090       ??_C@_15EPELEGJA@?$AAk?$AAo?$AA?$AA@ 0000000180024090     libucrt:lcidtoname_downlevel.obj
 0002:00004098       ??_C@_15NDDHIMN@?$AAn?$AAl?$AA?$AA@ 0000000180024098     libucrt:lcidtoname_downlevel.obj
 0002:000040a0       ??_C@_15BPIGNHCD@?$AAn?$AAo?$AA?$AA@ 00000001800240a0     libucrt:lcidtoname_downlevel.obj
 0002:000040a8       ??_C@_15DEOPBLCG@?$AAp?$AAl?$AA?$AA@ 00000001800240a8     libucrt:lcidtoname_downlevel.obj
 0002:000040b0       ??_C@_15KBECGEFG@?$AAp?$AAt?$AA?$AA@ 00000001800240b0     libucrt:lcidtoname_downlevel.obj
 0002:000040b8       ??_C@_15GLJCBFMD@?$AAr?$AAo?$AA?$AA@ 00000001800240b8     libucrt:lcidtoname_downlevel.obj
 0002:000040c0       ??_C@_15FEDGKCDI@?$AAr?$AAu?$AA?$AA@ 00000001800240c0     libucrt:lcidtoname_downlevel.obj
 0002:000040c8       ??_C@_15GLKMLLHM@?$AAh?$AAr?$AA?$AA@ 00000001800240c8     libucrt:lcidtoname_downlevel.obj
 0002:000040d0       ??_C@_15CPKMFBDB@?$AAs?$AAk?$AA?$AA@ 00000001800240d0     libucrt:lcidtoname_downlevel.obj
 0002:000040d8       ??_C@_15BAAIOGMK@?$AAs?$AAq?$AA?$AA@ 00000001800240d8     libucrt:lcidtoname_downlevel.obj
 0002:000040e0       ??_C@_15INNPNOHD@?$AAs?$AAv?$AA?$AA@ 00000001800240e0     libucrt:lcidtoname_downlevel.obj
 0002:000040e8       ??_C@_15CABMMOGH@?$AAt?$AAh?$AA?$AA@ 00000001800240e8     libucrt:lcidtoname_downlevel.obj
 0002:000040f0       ??_C@_15BPLIHJJM@?$AAt?$AAr?$AA?$AA@ 00000001800240f0     libucrt:lcidtoname_downlevel.obj
 0002:000040f8       ??_C@_15NEOEKKDJ@?$AAu?$AAr?$AA?$AA@ 00000001800240f8     libucrt:lcidtoname_downlevel.obj
 0002:00004100       ??_C@_15NFICGAJK@?$AAi?$AAd?$AA?$AA@ 0000000180024100     libucrt:lcidtoname_downlevel.obj
 0002:00004108       ??_C@_15HPJPHDM@?$AAb?$AAe?$AA?$AA@ 0000000180024108     libucrt:lcidtoname_downlevel.obj
 0002:00004110       ??_C@_15LCHLGJII@?$AAs?$AAl?$AA?$AA@ 0000000180024110     libucrt:lcidtoname_downlevel.obj
 0002:00004118       ??_C@_15PCFJPHHO@?$AAe?$AAt?$AA?$AA@ 0000000180024118     libucrt:lcidtoname_downlevel.obj
 0002:00004120       ??_C@_15HPFPGODN@?$AAl?$AAv?$AA?$AA@ 0000000180024120     libucrt:lcidtoname_downlevel.obj
 0002:00004128       ??_C@_15NFFGKGLG@?$AAl?$AAt?$AA?$AA@ 0000000180024128     libucrt:lcidtoname_downlevel.obj
 0002:00004130       ??_C@_15BDAKCCHN@?$AAf?$AAa?$AA?$AA@ 0000000180024130     libucrt:lcidtoname_downlevel.obj
 0002:00004138       ??_C@_15NFGIAIAJ@?$AAv?$AAi?$AA?$AA@ 0000000180024138     libucrt:lcidtoname_downlevel.obj
 0002:00004140       ??_C@_15LMKNDMHN@?$AAh?$AAy?$AA?$AA@ 0000000180024140     libucrt:lcidtoname_downlevel.obj
 0002:00004148       ??_C@_15IJBHMCFL@?$AAa?$AAz?$AA?$AA@ 0000000180024148     libucrt:lcidtoname_downlevel.obj
 0002:00004150       ??_C@_15EKOFJABL@?$AAe?$AAu?$AA?$AA@ 0000000180024150     libucrt:lcidtoname_downlevel.obj
 0002:00004158       ??_C@_15BGHADCNK@?$AAm?$AAk?$AA?$AA@ 0000000180024158     libucrt:lcidtoname_downlevel.obj
 0002:00004160       ??_C@_15JDNICKHM@?$AAa?$AAf?$AA?$AA@ 0000000180024160     libucrt:lcidtoname_downlevel.obj
 0002:00004168       ??_C@_15KPJEDBKD@?$AAk?$AAa?$AA?$AA@ 0000000180024168     libucrt:lcidtoname_downlevel.obj
 0002:00004170       ??_C@_15PDNFFFEO@?$AAf?$AAo?$AA?$AA@ 0000000180024170     libucrt:lcidtoname_downlevel.obj
 0002:00004178       ??_C@_15OMLEGLOC@?$AAh?$AAi?$AA?$AA@ 0000000180024178     libucrt:lcidtoname_downlevel.obj
 0002:00004180       ??_C@_15IDNNENKK@?$AAm?$AAs?$AA?$AA@ 0000000180024180     libucrt:lcidtoname_downlevel.obj
 0002:00004188       ??_C@_15MACJNBMH@?$AAk?$AAk?$AA?$AA@ 0000000180024188     libucrt:lcidtoname_downlevel.obj
 0002:00004190       ??_C@_15DKDJEOND@?$AAk?$AAy?$AA?$AA@ 0000000180024190     libucrt:lcidtoname_downlevel.obj
 0002:00004198       ??_C@_15DFGDLJBG@?$AAs?$AAw?$AA?$AA@ 0000000180024198     libucrt:lcidtoname_downlevel.obj
 0002:000041a0       ??_C@_15BBFAICNG@?$AAu?$AAz?$AA?$AA@ 00000001800241a0     libucrt:lcidtoname_downlevel.obj
 0002:000041a8       ??_C@_15DKNDCGEA@?$AAt?$AAt?$AA?$AA@ 00000001800241a8     libucrt:lcidtoname_downlevel.obj
 0002:000041b0       ??_C@_15MGIFMDPL@?$AAp?$AAa?$AA?$AA@ 00000001800241b0     libucrt:lcidtoname_downlevel.obj
 0002:000041b8       ??_C@_15HCNDBBA@?$AAg?$AAu?$AA?$AA@ 00000001800241b8     libucrt:lcidtoname_downlevel.obj
 0002:000041c0       ??_C@_15FNBEIBON@?$AAt?$AAa?$AA?$AA@ 00000001800241c0     libucrt:lcidtoname_downlevel.obj
 0002:000041c8       ??_C@_15NCHGBGLK@?$AAt?$AAe?$AA?$AA@ 00000001800241c8     libucrt:lcidtoname_downlevel.obj
 0002:000041d0       ??_C@_15PHPHCBPF@?$AAk?$AAn?$AA?$AA@ 00000001800241d0     libucrt:lcidtoname_downlevel.obj
 0002:000041d8       ??_C@_15DLGBCKMP@?$AAm?$AAr?$AA?$AA@ 00000001800241d8     libucrt:lcidtoname_downlevel.obj
 0002:000041e0       ??_C@_15EABBLBFF@?$AAs?$AAa?$AA?$AA@ 00000001800241e0     libucrt:lcidtoname_downlevel.obj
 0002:000041e8       ??_C@_15CBKOMCOI@?$AAm?$AAn?$AA?$AA@ 00000001800241e8     libucrt:lcidtoname_downlevel.obj
 0002:000041f0       ??_C@_15CKDMCJAF@?$AAg?$AAl?$AA?$AA@ 00000001800241f0     libucrt:lcidtoname_downlevel.obj
 0002:000041f8       ??_C@_17CNJFBPG@?$AAk?$AAo?$AAk?$AA?$AA@ 00000001800241f8     libucrt:lcidtoname_downlevel.obj
 0002:00004200       ??_C@_17FFBJICPL@?$AAs?$AAy?$AAr?$AA?$AA@ 0000000180024200     libucrt:lcidtoname_downlevel.obj
 0002:00004208       ??_C@_17KPNDCPAF@?$AAd?$AAi?$AAv?$AA?$AA@ 0000000180024208     libucrt:lcidtoname_downlevel.obj
 0002:00004210       ??_C@_11LOCGONAA@?$AA?$AA@ 0000000180024210     libucrt:lcidtoname_downlevel.obj
 0002:00004218       ??_C@_1M@OKAHONE@?$AAa?$AAr?$AA?9?$AAS?$AAA?$AA?$AA@ 0000000180024218     libucrt:lcidtoname_downlevel.obj
 0002:00004228       ??_C@_1M@FFFIGIGK@?$AAb?$AAg?$AA?9?$AAB?$AAG?$AA?$AA@ 0000000180024228     libucrt:lcidtoname_downlevel.obj
 0002:00004238       ??_C@_1M@BJNKEDC@?$AAc?$AAa?$AA?9?$AAE?$AAS?$AA?$AA@ 0000000180024238     libucrt:lcidtoname_downlevel.obj
 0002:00004248       ??_C@_1M@IJJHFJHA@?$AAc?$AAs?$AA?9?$AAC?$AAZ?$AA?$AA@ 0000000180024248     libucrt:lcidtoname_downlevel.obj
 0002:00004258       ??_C@_1M@CLPEOBGI@?$AAd?$AAa?$AA?9?$AAD?$AAK?$AA?$AA@ 0000000180024258     libucrt:lcidtoname_downlevel.obj
 0002:00004268       ??_C@_1M@MCMADGCB@?$AAd?$AAe?$AA?9?$AAD?$AAE?$AA?$AA@ 0000000180024268     libucrt:lcidtoname_downlevel.obj
 0002:00004278       ??_C@_1M@OOCKEMAM@?$AAe?$AAl?$AA?9?$AAG?$AAR?$AA?$AA@ 0000000180024278     libucrt:lcidtoname_downlevel.obj
 0002:00004288       ??_C@_1M@DDNJFGID@?$AAf?$AAi?$AA?9?$AAF?$AAI?$AA?$AA@ 0000000180024288     libucrt:lcidtoname_downlevel.obj
 0002:00004298       ??_C@_1M@GLIPPMAC@?$AAf?$AAr?$AA?9?$AAF?$AAR?$AA?$AA@ 0000000180024298     libucrt:lcidtoname_downlevel.obj
 0002:000042a8       ??_C@_1M@GFMCHPE@?$AAh?$AAe?$AA?9?$AAI?$AAL?$AA?$AA@ 00000001800242a8     libucrt:lcidtoname_downlevel.obj
 0002:000042b8       ??_C@_1M@MHLPGNKM@?$AAh?$AAu?$AA?9?$AAH?$AAU?$AA?$AA@ 00000001800242b8     libucrt:lcidtoname_downlevel.obj
 0002:000042c8       ??_C@_1M@LPDDNNPN@?$AAi?$AAs?$AA?9?$AAI?$AAS?$AA?$AA@ 00000001800242c8     libucrt:lcidtoname_downlevel.obj
 0002:000042d8       ??_C@_1M@MADIPODN@?$AAi?$AAt?$AA?9?$AAI?$AAT?$AA?$AA@ 00000001800242d8     libucrt:lcidtoname_downlevel.obj
 0002:000042e8       ??_C@_1M@IHBJJGG@?$AAn?$AAl?$AA?9?$AAN?$AAL?$AA?$AA@ 00000001800242e8     libucrt:lcidtoname_downlevel.obj
 0002:000042f8       ??_C@_1M@EANAGDL@?$AAn?$AAb?$AA?9?$AAN?$AAO?$AA?$AA@ 00000001800242f8     libucrt:lcidtoname_downlevel.obj
 0002:00004308       ??_C@_1M@NEIEMEGP@?$AAp?$AAl?$AA?9?$AAP?$AAL?$AA?$AA@ 0000000180024308     libucrt:lcidtoname_downlevel.obj
 0002:00004318       ??_C@_1M@BOCFIGEP@?$AAp?$AAt?$AA?9?$AAB?$AAR?$AA?$AA@ 0000000180024318     libucrt:lcidtoname_downlevel.obj
 0002:00004328       ??_C@_1M@IMPFOPBG@?$AAr?$AAo?$AA?9?$AAR?$AAO?$AA?$AA@ 0000000180024328     libucrt:lcidtoname_downlevel.obj
 0002:00004338       ??_C@_1M@IDNNEJMM@?$AAr?$AAu?$AA?9?$AAR?$AAU?$AA?$AA@ 0000000180024338     libucrt:lcidtoname_downlevel.obj
 0002:00004348       ??_C@_1M@LILEEOGM@?$AAh?$AAr?$AA?9?$AAH?$AAR?$AA?$AA@ 0000000180024348     libucrt:lcidtoname_downlevel.obj
 0002:00004358       ??_C@_1M@FKIFEHPB@?$AAs?$AAk?$AA?9?$AAS?$AAK?$AA?$AA@ 0000000180024358     libucrt:lcidtoname_downlevel.obj
 0002:00004368       ??_C@_1M@LJMAMNPJ@?$AAs?$AAq?$AA?9?$AAA?$AAL?$AA?$AA@ 0000000180024368     libucrt:lcidtoname_downlevel.obj
 0002:00004378       ??_C@_1M@GIAKDKJK@?$AAs?$AAv?$AA?9?$AAS?$AAE?$AA?$AA@ 0000000180024378     libucrt:lcidtoname_downlevel.obj
 0002:00004388       ??_C@_1M@MKJKIKCL@?$AAt?$AAh?$AA?9?$AAT?$AAH?$AA?$AA@ 0000000180024388     libucrt:lcidtoname_downlevel.obj
 0002:00004398       ??_C@_1M@MFLCCMPB@?$AAt?$AAr?$AA?9?$AAT?$AAR?$AA?$AA@ 0000000180024398     libucrt:lcidtoname_downlevel.obj
 0002:000043a8       ??_C@_1M@OIJHDKJN@?$AAu?$AAr?$AA?9?$AAP?$AAK?$AA?$AA@ 00000001800243a8     libucrt:lcidtoname_downlevel.obj
 0002:000043b8       ??_C@_1M@LHIPCIEK@?$AAi?$AAd?$AA?9?$AAI?$AAD?$AA?$AA@ 00000001800243b8     libucrt:lcidtoname_downlevel.obj
 0002:000043c8       ??_C@_1M@MFMOBGI@?$AAu?$AAk?$AA?9?$AAU?$AAA?$AA?$AA@ 00000001800243c8     libucrt:lcidtoname_downlevel.obj
 0002:000043d8       ??_C@_1M@OBGLJIPL@?$AAb?$AAe?$AA?9?$AAB?$AAY?$AA?$AA@ 00000001800243d8     libucrt:lcidtoname_downlevel.obj
 0002:000043e8       ??_C@_1M@BCFAJEAD@?$AAs?$AAl?$AA?9?$AAS?$AAI?$AA?$AA@ 00000001800243e8     libucrt:lcidtoname_downlevel.obj
 0002:000043f8       ??_C@_1M@FKFFEDDN@?$AAe?$AAt?$AA?9?$AAE?$AAE?$AA?$AA@ 00000001800243f8     libucrt:lcidtoname_downlevel.obj
 0002:00004408       ??_C@_1M@KGKKAACI@?$AAl?$AAv?$AA?9?$AAL?$AAV?$AA?$AA@ 0000000180024408     libucrt:lcidtoname_downlevel.obj
 0002:00004418       ??_C@_1M@IFGBIJO@?$AAl?$AAt?$AA?9?$AAL?$AAT?$AA?$AA@ 0000000180024418     libucrt:lcidtoname_downlevel.obj
 0002:00004428       ??_C@_1M@FGEAHEDM@?$AAf?$AAa?$AA?9?$AAI?$AAR?$AA?$AA@ 0000000180024428     libucrt:lcidtoname_downlevel.obj
 0002:00004438       ??_C@_1M@KBMAIBFN@?$AAv?$AAi?$AA?9?$AAV?$AAN?$AA?$AA@ 0000000180024438     libucrt:lcidtoname_downlevel.obj
 0002:00004448       ??_C@_1M@GPCBKDJK@?$AAh?$AAy?$AA?9?$AAA?$AAM?$AA?$AA@ 0000000180024448     libucrt:lcidtoname_downlevel.obj
 0002:00004458       ??_C@_1BG@BECMDDJB@?$AAa?$AAz?$AA?9?$AAA?$AAZ?$AA?9?$AAL?$AAa?$AAt?$AAn?$AA?$AA@ 0000000180024458     libucrt:lcidtoname_downlevel.obj
 0002:00004470       ??_C@_1M@MAOFCAEA@?$AAe?$AAu?$AA?9?$AAE?$AAS?$AA?$AA@ 0000000180024470     libucrt:lcidtoname_downlevel.obj
 0002:00004480       ??_C@_1M@IGHABKPI@?$AAm?$AAk?$AA?9?$AAM?$AAK?$AA?$AA@ 0000000180024480     libucrt:lcidtoname_downlevel.obj
 0002:00004490       ??_C@_1M@IAIGNEJG@?$AAt?$AAn?$AA?9?$AAZ?$AAA?$AA?$AA@ 0000000180024490     libucrt:lcidtoname_downlevel.obj
 0002:000044a0       ??_C@_1M@IIJCOJFA@?$AAx?$AAh?$AA?9?$AAZ?$AAA?$AA?$AA@ 00000001800244a0     libucrt:lcidtoname_downlevel.obj
 0002:000044b0       ??_C@_1M@LGPJHNJH@?$AAz?$AAu?$AA?9?$AAZ?$AAA?$AA?$AA@ 00000001800244b0     libucrt:lcidtoname_downlevel.obj
 0002:000044c0       ??_C@_1M@HOKAOIO@?$AAa?$AAf?$AA?9?$AAZ?$AAA?$AA?$AA@ 00000001800244c0     libucrt:lcidtoname_downlevel.obj
 0002:000044d0       ??_C@_1M@DPCLHLIE@?$AAk?$AAa?$AA?9?$AAG?$AAE?$AA?$AA@ 00000001800244d0     libucrt:lcidtoname_downlevel.obj
 0002:000044e0       ??_C@_1M@BLKMHJBI@?$AAf?$AAo?$AA?9?$AAF?$AAO?$AA?$AA@ 00000001800244e0     libucrt:lcidtoname_downlevel.obj
 0002:000044f0       ??_C@_1M@LGGJAPPB@?$AAh?$AAi?$AA?9?$AAI?$AAN?$AA?$AA@ 00000001800244f0     libucrt:lcidtoname_downlevel.obj
 0002:00004500       ??_C@_1M@FIKPIHFE@?$AAm?$AAt?$AA?9?$AAM?$AAT?$AA?$AA@ 0000000180024500     libucrt:lcidtoname_downlevel.obj
 0002:00004510       ??_C@_1M@HEGGPBFA@?$AAs?$AAe?$AA?9?$AAN?$AAO?$AA?$AA@ 0000000180024510     libucrt:lcidtoname_downlevel.obj
 0002:00004520       ??_C@_1M@EIBJEEPA@?$AAm?$AAs?$AA?9?$AAM?$AAY?$AA?$AA@ 0000000180024520     libucrt:lcidtoname_downlevel.obj
 0002:00004530       ??_C@_1M@FHLBGMPP@?$AAk?$AAk?$AA?9?$AAK?$AAZ?$AA?$AA@ 0000000180024530     libucrt:lcidtoname_downlevel.obj
 0002:00004540       ??_C@_1M@NGJJLCGI@?$AAk?$AAy?$AA?9?$AAK?$AAG?$AA?$AA@ 0000000180024540     libucrt:lcidtoname_downlevel.obj
 0002:00004550       ??_C@_1M@GIENNBFC@?$AAs?$AAw?$AA?9?$AAK?$AAE?$AA?$AA@ 0000000180024550     libucrt:lcidtoname_downlevel.obj
 0002:00004560       ??_C@_1BG@NDGMJIMJ@?$AAu?$AAz?$AA?9?$AAU?$AAZ?$AA?9?$AAL?$AAa?$AAt?$AAn?$AA?$AA@ 0000000180024560     libucrt:lcidtoname_downlevel.obj
 0002:00004578       ??_C@_1M@IDCCIHBC@?$AAt?$AAt?$AA?9?$AAR?$AAU?$AA?$AA@ 0000000180024578     libucrt:lcidtoname_downlevel.obj
 0002:00004588       ??_C@_1M@LOICPMOJ@?$AAb?$AAn?$AA?9?$AAI?$AAN?$AA?$AA@ 0000000180024588     libucrt:lcidtoname_downlevel.obj
 0002:00004598       ??_C@_1M@KPKKNEAH@?$AAp?$AAa?$AA?9?$AAI?$AAN?$AA?$AA@ 0000000180024598     libucrt:lcidtoname_downlevel.obj
 0002:000045a8       ??_C@_1M@PJGPPBOG@?$AAg?$AAu?$AA?9?$AAI?$AAN?$AA?$AA@ 00000001800245a8     libucrt:lcidtoname_downlevel.obj
 0002:000045b8       ??_C@_1M@KMKMOPHI@?$AAt?$AAa?$AA?9?$AAI?$AAN?$AA?$AA@ 00000001800245b8     libucrt:lcidtoname_downlevel.obj
 0002:000045c8       ??_C@_1M@KFEHEPAC@?$AAt?$AAe?$AA?9?$AAI?$AAN?$AA?$AA@ 00000001800245c8     libucrt:lcidtoname_downlevel.obj
 0002:000045d8       ??_C@_1M@CDCLMGHI@?$AAk?$AAn?$AA?9?$AAI?$AAN?$AA?$AA@ 00000001800245d8     libucrt:lcidtoname_downlevel.obj
 0002:000045e8       ??_C@_1M@MIODLDKF@?$AAm?$AAl?$AA?9?$AAI?$AAN?$AA?$AA@ 00000001800245e8     libucrt:lcidtoname_downlevel.obj
 0002:000045f8       ??_C@_1M@PBIEACPO@?$AAm?$AAr?$AA?9?$AAI?$AAN?$AA?$AA@ 00000001800245f8     libucrt:lcidtoname_downlevel.obj
 0002:00004608       ??_C@_1M@NIDEAGPH@?$AAs?$AAa?$AA?9?$AAI?$AAN?$AA?$AA@ 0000000180024608     libucrt:lcidtoname_downlevel.obj
 0002:00004618       ??_C@_1M@FHIHCBIO@?$AAm?$AAn?$AA?9?$AAM?$AAN?$AA?$AA@ 0000000180024618     libucrt:lcidtoname_downlevel.obj
 0002:00004628       ??_C@_1M@JAIJPENP@?$AAc?$AAy?$AA?9?$AAG?$AAB?$AA?$AA@ 0000000180024628     libucrt:lcidtoname_downlevel.obj
 0002:00004638       ??_C@_1M@PHGFBEPN@?$AAg?$AAl?$AA?9?$AAE?$AAS?$AA?$AA@ 0000000180024638     libucrt:lcidtoname_downlevel.obj
 0002:00004648       ??_C@_1O@KPIPDNCP@?$AAk?$AAo?$AAk?$AA?9?$AAI?$AAN?$AA?$AA@ 0000000180024648     libucrt:lcidtoname_downlevel.obj
 0002:00004658       ??_C@_1O@KNHJLDJA@?$AAs?$AAy?$AAr?$AA?9?$AAS?$AAY?$AA?$AA@ 0000000180024658     libucrt:lcidtoname_downlevel.obj
 0002:00004668       ??_C@_1O@MKEKBLAH@?$AAd?$AAi?$AAv?$AA?9?$AAM?$AAV?$AA?$AA@ 0000000180024668     libucrt:lcidtoname_downlevel.obj
 0002:00004678       ??_C@_1O@OHDCKDDF@?$AAq?$AAu?$AAz?$AA?9?$AAB?$AAO?$AA?$AA@ 0000000180024678     libucrt:lcidtoname_downlevel.obj
 0002:00004688       ??_C@_1M@LEPJNLFD@?$AAn?$AAs?$AA?9?$AAZ?$AAA?$AA?$AA@ 0000000180024688     libucrt:lcidtoname_downlevel.obj
 0002:00004698       ??_C@_1M@OMLEIIJB@?$AAm?$AAi?$AA?9?$AAN?$AAZ?$AA?$AA@ 0000000180024698     libucrt:lcidtoname_downlevel.obj
 0002:000046a8       ??_C@_1M@PMPEAILG@?$AAa?$AAr?$AA?9?$AAI?$AAQ?$AA?$AA@ 00000001800246a8     libucrt:lcidtoname_downlevel.obj
 0002:000046b8       ??_C@_1M@CNKPNOEE@?$AAd?$AAe?$AA?9?$AAC?$AAH?$AA?$AA@ 00000001800246b8     libucrt:lcidtoname_downlevel.obj
 0002:000046c8       ??_C@_1M@LKMGMLKO@?$AAe?$AAn?$AA?9?$AAG?$AAB?$AA?$AA@ 00000001800246c8     libucrt:lcidtoname_downlevel.obj
 0002:000046d8       ??_C@_1M@PGKJFFGL@?$AAe?$AAs?$AA?9?$AAM?$AAX?$AA?$AA@ 00000001800246d8     libucrt:lcidtoname_downlevel.obj
 0002:000046e8       ??_C@_1M@DNNANBDC@?$AAf?$AAr?$AA?9?$AAB?$AAE?$AA?$AA@ 00000001800246e8     libucrt:lcidtoname_downlevel.obj
 0002:000046f8       ??_C@_1M@HLGMDFHM@?$AAi?$AAt?$AA?9?$AAC?$AAH?$AA?$AA@ 00000001800246f8     libucrt:lcidtoname_downlevel.obj
 0002:00004708       ??_C@_1M@CLLBGJH@?$AAn?$AAl?$AA?9?$AAB?$AAE?$AA?$AA@ 0000000180024708     libucrt:lcidtoname_downlevel.obj
 0002:00004718       ??_C@_1M@BODBOGLF@?$AAn?$AAn?$AA?9?$AAN?$AAO?$AA?$AA@ 0000000180024718     libucrt:lcidtoname_downlevel.obj
 0002:00004728       ??_C@_1M@HFFAHKAD@?$AAp?$AAt?$AA?9?$AAP?$AAT?$AA?$AA@ 0000000180024728     libucrt:lcidtoname_downlevel.obj
 0002:00004738       ??_C@_1BG@LNOAKHIE@?$AAs?$AAr?$AA?9?$AAS?$AAP?$AA?9?$AAL?$AAa?$AAt?$AAn?$AA?$AA@ 0000000180024738     libucrt:lcidtoname_downlevel.obj
 0002:00004750       ??_C@_1M@HBMHBGAK@?$AAs?$AAv?$AA?9?$AAF?$AAI?$AA?$AA@ 0000000180024750     libucrt:lcidtoname_downlevel.obj
 0002:00004760       ??_C@_1BG@DGCJGJBE@?$AAa?$AAz?$AA?9?$AAA?$AAZ?$AA?9?$AAC?$AAy?$AAr?$AAl?$AA?$AA@ 0000000180024760     libucrt:lcidtoname_downlevel.obj
 0002:00004778       ??_C@_1M@KEJDAAHB@?$AAs?$AAe?$AA?9?$AAS?$AAE?$AA?$AA@ 0000000180024778     libucrt:lcidtoname_downlevel.obj
 0002:00004788       ??_C@_1M@HEIBJJAD@?$AAm?$AAs?$AA?9?$AAB?$AAN?$AA?$AA@ 0000000180024788     libucrt:lcidtoname_downlevel.obj
 0002:00004798       ??_C@_1BG@PBGJMCEM@?$AAu?$AAz?$AA?9?$AAU?$AAZ?$AA?9?$AAC?$AAy?$AAr?$AAl?$AA?$AA@ 0000000180024798     libucrt:lcidtoname_downlevel.obj
 0002:000047b0       ??_C@_1O@LAOBCMDF@?$AAq?$AAu?$AAz?$AA?9?$AAE?$AAC?$AA?$AA@ 00000001800247b0     libucrt:lcidtoname_downlevel.obj
 0002:000047c0       ??_C@_1M@POEEMAIO@?$AAa?$AAr?$AA?9?$AAE?$AAG?$AA?$AA@ 00000001800247c0     libucrt:lcidtoname_downlevel.obj
 0002:000047d0       ??_C@_1M@EFAKDEDL@?$AAz?$AAh?$AA?9?$AAH?$AAK?$AA?$AA@ 00000001800247d0     libucrt:lcidtoname_downlevel.obj
 0002:000047e0       ??_C@_1M@HKKIJHGI@?$AAd?$AAe?$AA?9?$AAA?$AAT?$AA?$AA@ 00000001800247e0     libucrt:lcidtoname_downlevel.obj
 0002:000047f0       ??_C@_1M@KBFBEHJF@?$AAe?$AAn?$AA?9?$AAA?$AAU?$AA?$AA@ 00000001800247f0     libucrt:lcidtoname_downlevel.obj
 0002:00004800       ??_C@_1M@MNPLFAAH@?$AAe?$AAs?$AA?9?$AAE?$AAS?$AA?$AA@ 0000000180024800     libucrt:lcidtoname_downlevel.obj
 0002:00004810       ??_C@_1M@HJOOJFMA@?$AAf?$AAr?$AA?9?$AAC?$AAA?$AA?$AA@ 0000000180024810     libucrt:lcidtoname_downlevel.obj
 0002:00004820       ??_C@_1BG@JPOFPNAB@?$AAs?$AAr?$AA?9?$AAS?$AAP?$AA?9?$AAC?$AAy?$AAr?$AAl?$AA?$AA@ 0000000180024820     libucrt:lcidtoname_downlevel.obj
 0002:00004838       ??_C@_1M@LNFOCMOB@?$AAs?$AAe?$AA?9?$AAF?$AAI?$AA?$AA@ 0000000180024838     libucrt:lcidtoname_downlevel.obj
 0002:00004848       ??_C@_1O@MGJBOAMB@?$AAq?$AAu?$AAz?$AA?9?$AAP?$AAE?$AA?$AA@ 0000000180024848     libucrt:lcidtoname_downlevel.obj
 0002:00004858       ??_C@_1M@GJINLBOK@?$AAa?$AAr?$AA?9?$AAL?$AAY?$AA?$AA@ 0000000180024858     libucrt:lcidtoname_downlevel.obj
 0002:00004868       ??_C@_1M@GGMNHJNL@?$AAz?$AAh?$AA?9?$AAS?$AAG?$AA?$AA@ 0000000180024868     libucrt:lcidtoname_downlevel.obj
 0002:00004878       ??_C@_1M@HOIKODND@?$AAd?$AAe?$AA?9?$AAL?$AAU?$AA?$AA@ 0000000180024878     libucrt:lcidtoname_downlevel.obj
 0002:00004888       ??_C@_1M@DDOCCGFG@?$AAe?$AAn?$AA?9?$AAC?$AAA?$AA?$AA@ 0000000180024888     libucrt:lcidtoname_downlevel.obj
 0002:00004898       ??_C@_1M@BNOEMJLF@?$AAe?$AAs?$AA?9?$AAG?$AAT?$AA?$AA@ 0000000180024898     libucrt:lcidtoname_downlevel.obj
 0002:000048a8       ??_C@_1M@EOGNKEK@?$AAf?$AAr?$AA?9?$AAC?$AAH?$AA?$AA@ 00000001800248a8     libucrt:lcidtoname_downlevel.obj
 0002:000048b8       ??_C@_1M@FLIDJFHL@?$AAh?$AAr?$AA?9?$AAB?$AAA?$AA?$AA@ 00000001800248b8     libucrt:lcidtoname_downlevel.obj
 0002:000048c8       ??_C@_1O@FMCELNAJ@?$AAs?$AAm?$AAj?$AA?9?$AAN?$AAO?$AA?$AA@ 00000001800248c8     libucrt:lcidtoname_downlevel.obj
 0002:000048d8       ??_C@_1M@JHGLJMGJ@?$AAa?$AAr?$AA?9?$AAD?$AAZ?$AA?$AA@ 00000001800248d8     libucrt:lcidtoname_downlevel.obj
 0002:000048e8       ??_C@_1M@JKKFDCNP@?$AAz?$AAh?$AA?9?$AAM?$AAO?$AA?$AA@ 00000001800248e8     libucrt:lcidtoname_downlevel.obj
 0002:000048f8       ??_C@_1M@GEEFALPE@?$AAd?$AAe?$AA?9?$AAL?$AAI?$AA?$AA@ 00000001800248f8     libucrt:lcidtoname_downlevel.obj
 0002:00004908       ??_C@_1M@IGEOFBG@?$AAe?$AAn?$AA?9?$AAN?$AAZ?$AA?$AA@ 0000000180024908     libucrt:lcidtoname_downlevel.obj
 0002:00004918       ??_C@_1M@KDBONEHP@?$AAe?$AAs?$AA?9?$AAC?$AAR?$AA?$AA@ 0000000180024918     libucrt:lcidtoname_downlevel.obj
 0002:00004928       ??_C@_1M@FHMDOHNN@?$AAf?$AAr?$AA?9?$AAL?$AAU?$AA?$AA@ 0000000180024928     libucrt:lcidtoname_downlevel.obj
 0002:00004938       ??_C@_1BG@NFKKMAFG@?$AAb?$AAs?$AA?9?$AAB?$AAA?$AA?9?$AAL?$AAa?$AAt?$AAn?$AA?$AA@ 0000000180024938     libucrt:lcidtoname_downlevel.obj
 0002:00004950       ??_C@_1O@IMNBEMCI@?$AAs?$AAm?$AAj?$AA?9?$AAS?$AAE?$AA?$AA@ 0000000180024950     libucrt:lcidtoname_downlevel.obj
 0002:00004960       ??_C@_1M@DHHMBNDP@?$AAa?$AAr?$AA?9?$AAM?$AAA?$AA?$AA@ 0000000180024960     libucrt:lcidtoname_downlevel.obj
 0002:00004970       ??_C@_1M@BNBLJCGH@?$AAe?$AAn?$AA?9?$AAI?$AAE?$AA?$AA@ 0000000180024970     libucrt:lcidtoname_downlevel.obj
 0002:00004980       ??_C@_1M@GEPAFMDL@?$AAe?$AAs?$AA?9?$AAP?$AAA?$AA?$AA@ 0000000180024980     libucrt:lcidtoname_downlevel.obj
 0002:00004990       ??_C@_1M@OJONDMDL@?$AAf?$AAr?$AA?9?$AAM?$AAC?$AA?$AA@ 0000000180024990     libucrt:lcidtoname_downlevel.obj
 0002:000049a0       ??_C@_1BG@OBCNFJB@?$AAs?$AAr?$AA?9?$AAB?$AAA?$AA?9?$AAL?$AAa?$AAt?$AAn?$AA?$AA@ 00000001800249a0     libucrt:lcidtoname_downlevel.obj
 0002:000049b8       ??_C@_1O@KEMEEGPO@?$AAs?$AAm?$AAa?$AA?9?$AAN?$AAO?$AA?$AA@ 00000001800249b8     libucrt:lcidtoname_downlevel.obj
 0002:000049c8       ??_C@_1M@ELMGFODK@?$AAa?$AAr?$AA?9?$AAT?$AAN?$AA?$AA@ 00000001800249c8     libucrt:lcidtoname_downlevel.obj
 0002:000049d8       ??_C@_1M@BHDLHFAF@?$AAe?$AAn?$AA?9?$AAZ?$AAA?$AA?$AA@ 00000001800249d8     libucrt:lcidtoname_downlevel.obj
 0002:000049e8       ??_C@_1M@BMGIGLIF@?$AAe?$AAs?$AA?9?$AAD?$AAO?$AA?$AA@ 00000001800249e8     libucrt:lcidtoname_downlevel.obj
 0002:000049f8       ??_C@_1BG@CMBHIPBE@?$AAs?$AAr?$AA?9?$AAB?$AAA?$AA?9?$AAC?$AAy?$AAr?$AAl?$AA?$AA@ 00000001800249f8     libucrt:lcidtoname_downlevel.obj
 0002:00004a10       ??_C@_1O@HEDBLHNP@?$AAs?$AAm?$AAa?$AA?9?$AAS?$AAE?$AA?$AA@ 0000000180024a10     libucrt:lcidtoname_downlevel.obj
 0002:00004a20       ??_C@_1M@DAGCADIM@?$AAa?$AAr?$AA?9?$AAO?$AAM?$AA?$AA@ 0000000180024a20     libucrt:lcidtoname_downlevel.obj
 0002:00004a30       ??_C@_1M@FODLMICG@?$AAe?$AAn?$AA?9?$AAJ?$AAM?$AA?$AA@ 0000000180024a30     libucrt:lcidtoname_downlevel.obj
 0002:00004a40       ??_C@_1M@DNMLCIHB@?$AAe?$AAs?$AA?9?$AAV?$AAE?$AA?$AA@ 0000000180024a40     libucrt:lcidtoname_downlevel.obj
 0002:00004a50       ??_C@_1O@EOKHMKJK@?$AAs?$AAm?$AAs?$AA?9?$AAF?$AAI?$AA?$AA@ 0000000180024a50     libucrt:lcidtoname_downlevel.obj
 0002:00004a60       ??_C@_1M@CAFJMKOF@?$AAa?$AAr?$AA?9?$AAY?$AAE?$AA?$AA@ 0000000180024a60     libucrt:lcidtoname_downlevel.obj
 0002:00004a70       ??_C@_1M@CBFHIJLI@?$AAe?$AAn?$AA?9?$AAC?$AAB?$AA?$AA@ 0000000180024a70     libucrt:lcidtoname_downlevel.obj
 0002:00004a80       ??_C@_1M@BGNFLDN@?$AAe?$AAs?$AA?9?$AAC?$AAO?$AA?$AA@ 0000000180024a80     libucrt:lcidtoname_downlevel.obj
 0002:00004a90       ??_C@_1O@JMPHMAMC@?$AAs?$AAm?$AAn?$AA?9?$AAF?$AAI?$AA?$AA@ 0000000180024a90     libucrt:lcidtoname_downlevel.obj
 0002:00004aa0       ??_C@_1M@JLANABKE@?$AAa?$AAr?$AA?9?$AAS?$AAY?$AA?$AA@ 0000000180024aa0     libucrt:lcidtoname_downlevel.obj
 0002:00004ab0       ??_C@_1M@HPKGCFGN@?$AAe?$AAn?$AA?9?$AAB?$AAZ?$AA?$AA@ 0000000180024ab0     libucrt:lcidtoname_downlevel.obj
 0002:00004ac0       ??_C@_1M@OLJCMLGM@?$AAe?$AAs?$AA?9?$AAP?$AAE?$AA?$AA@ 0000000180024ac0     libucrt:lcidtoname_downlevel.obj
 0002:00004ad0       ??_C@_1M@MKKGFKLE@?$AAa?$AAr?$AA?9?$AAJ?$AAO?$AA?$AA@ 0000000180024ad0     libucrt:lcidtoname_downlevel.obj
 0002:00004ae0       ??_C@_1M@EKPGLDNI@?$AAe?$AAn?$AA?9?$AAT?$AAT?$AA?$AA@ 0000000180024ae0     libucrt:lcidtoname_downlevel.obj
 0002:00004af0       ??_C@_1M@OONGHFHE@?$AAe?$AAs?$AA?9?$AAA?$AAR?$AA?$AA@ 0000000180024af0     libucrt:lcidtoname_downlevel.obj
 0002:00004b00       ??_C@_1M@OOJFGBHE@?$AAa?$AAr?$AA?9?$AAL?$AAB?$AA?$AA@ 0000000180024b00     libucrt:lcidtoname_downlevel.obj
 0002:00004b10       ??_C@_1M@GCEJHNEG@?$AAe?$AAn?$AA?9?$AAZ?$AAW?$AA?$AA@ 0000000180024b10     libucrt:lcidtoname_downlevel.obj
 0002:00004b20       ??_C@_1M@JNOCAHJI@?$AAe?$AAs?$AA?9?$AAE?$AAC?$AA?$AA@ 0000000180024b20     libucrt:lcidtoname_downlevel.obj
 0002:00004b30       ??_C@_1M@JEFHPGGB@?$AAa?$AAr?$AA?9?$AAK?$AAW?$AA?$AA@ 0000000180024b30     libucrt:lcidtoname_downlevel.obj
 0002:00004b40       ??_C@_1M@MLKIBJOJ@?$AAe?$AAn?$AA?9?$AAP?$AAH?$AA?$AA@ 0000000180024b40     libucrt:lcidtoname_downlevel.obj
 0002:00004b50       ??_C@_1M@BDNIPEND@?$AAe?$AAs?$AA?9?$AAC?$AAL?$AA?$AA@ 0000000180024b50     libucrt:lcidtoname_downlevel.obj
 0002:00004b60       ??_C@_1M@MPNMEKBD@?$AAa?$AAr?$AA?9?$AAA?$AAE?$AA?$AA@ 0000000180024b60     libucrt:lcidtoname_downlevel.obj
 0002:00004b70       ??_C@_1M@KBJALCPI@?$AAe?$AAs?$AA?9?$AAU?$AAY?$AA?$AA@ 0000000180024b70     libucrt:lcidtoname_downlevel.obj
 0002:00004b80       ??_C@_1M@LLCCOAGA@?$AAa?$AAr?$AA?9?$AAB?$AAH?$AA?$AA@ 0000000180024b80     libucrt:lcidtoname_downlevel.obj
 0002:00004b90       ??_C@_1M@PBFNCDEL@?$AAe?$AAs?$AA?9?$AAP?$AAY?$AA?$AA@ 0000000180024b90     libucrt:lcidtoname_downlevel.obj
 0002:00004ba0       ??_C@_1M@EDGINPNP@?$AAa?$AAr?$AA?9?$AAQ?$AAA?$AA?$AA@ 0000000180024ba0     libucrt:lcidtoname_downlevel.obj
 0002:00004bb0       ??_C@_1M@MKDBIIJI@?$AAe?$AAs?$AA?9?$AAB?$AAO?$AA?$AA@ 0000000180024bb0     libucrt:lcidtoname_downlevel.obj
 0002:00004bc0       ??_C@_1M@CPKKEBLD@?$AAe?$AAs?$AA?9?$AAS?$AAV?$AA?$AA@ 0000000180024bc0     libucrt:lcidtoname_downlevel.obj
 0002:00004bd0       ??_C@_1M@NDBGMMJL@?$AAe?$AAs?$AA?9?$AAH?$AAN?$AA?$AA@ 0000000180024bd0     libucrt:lcidtoname_downlevel.obj
 0002:00004be0       ??_C@_1M@JIJIBHDP@?$AAe?$AAs?$AA?9?$AAN?$AAI?$AA?$AA@ 0000000180024be0     libucrt:lcidtoname_downlevel.obj
 0002:00004bf0       ??_C@_1M@CGFMKEEK@?$AAe?$AAs?$AA?9?$AAP?$AAR?$AA?$AA@ 0000000180024bf0     libucrt:lcidtoname_downlevel.obj
 0002:00004c00       ??_C@_1O@ICJHKIIK@?$AAz?$AAh?$AA?9?$AAC?$AAH?$AAT?$AA?$AA@ 0000000180024c00     libucrt:lcidtoname_downlevel.obj
 0002:00004c10       ??_C@_15CLNEJCE@?$AAs?$AAr?$AA?$AA@ 0000000180024c10     libucrt:lcidtoname_downlevel.obj
 0002:00005a60       ??_C@_1M@KAHEKEIG@?$AAa?$AAf?$AA?9?$AAz?$AAa?$AA?$AA@ 0000000180025a60     libucrt:lcidtoname_downlevel.obj
 0002:00005a70       ??_C@_1M@GIECOABL@?$AAa?$AAr?$AA?9?$AAa?$AAe?$AA?$AA@ 0000000180025a70     libucrt:lcidtoname_downlevel.obj
 0002:00005a80       ??_C@_1M@BMLMEKGI@?$AAa?$AAr?$AA?9?$AAb?$AAh?$AA?$AA@ 0000000180025a80     libucrt:lcidtoname_downlevel.obj
 0002:00005a90       ??_C@_1M@DAPFDGGB@?$AAa?$AAr?$AA?9?$AAd?$AAz?$AA?$AA@ 0000000180025a90     libucrt:lcidtoname_downlevel.obj
 0002:00005aa0       ??_C@_1M@FJNKGKIG@?$AAa?$AAr?$AA?9?$AAe?$AAg?$AA?$AA@ 0000000180025aa0     libucrt:lcidtoname_downlevel.obj
 0002:00005ab0       ??_C@_1M@FLGKKCLO@?$AAa?$AAr?$AA?9?$AAi?$AAq?$AA?$AA@ 0000000180025ab0     libucrt:lcidtoname_downlevel.obj
 0002:00005ac0       ??_C@_1M@GNDIPALM@?$AAa?$AAr?$AA?9?$AAj?$AAo?$AA?$AA@ 0000000180025ac0     libucrt:lcidtoname_downlevel.obj
 0002:00005ad0       ??_C@_1M@DDMJFMGJ@?$AAa?$AAr?$AA?9?$AAk?$AAw?$AA?$AA@ 0000000180025ad0     libucrt:lcidtoname_downlevel.obj
 0002:00005ae0       ??_C@_1M@EJALMLHM@?$AAa?$AAr?$AA?9?$AAl?$AAb?$AA?$AA@ 0000000180025ae0     libucrt:lcidtoname_downlevel.obj
 0002:00005af0       ??_C@_1M@MOBDBLOC@?$AAa?$AAr?$AA?9?$AAl?$AAy?$AA?$AA@ 0000000180025af0     libucrt:lcidtoname_downlevel.obj
 0002:00005b00       ??_C@_1M@JAOCLHDH@?$AAa?$AAr?$AA?9?$AAm?$AAa?$AA?$AA@ 0000000180025b00     libucrt:lcidtoname_downlevel.obj
 0002:00005b10       ??_C@_1M@JHPMKJIE@?$AAa?$AAr?$AA?9?$AAo?$AAm?$AA?$AA@ 0000000180025b10     libucrt:lcidtoname_downlevel.obj
 0002:00005b20       ??_C@_1M@OEPGHFNH@?$AAa?$AAr?$AA?9?$AAq?$AAa?$AA?$AA@ 0000000180025b20     libucrt:lcidtoname_downlevel.obj
 0002:00005b30       ??_C@_1M@KJDONENM@?$AAa?$AAr?$AA?9?$AAs?$AAa?$AA?$AA@ 0000000180025b30     libucrt:lcidtoname_downlevel.obj
 0002:00005b40       ??_C@_1M@DMJDKLKM@?$AAa?$AAr?$AA?9?$AAs?$AAy?$AA?$AA@ 0000000180025b40     libucrt:lcidtoname_downlevel.obj
 0002:00005b50       ??_C@_1M@OMFIPEDC@?$AAa?$AAr?$AA?9?$AAt?$AAn?$AA?$AA@ 0000000180025b50     libucrt:lcidtoname_downlevel.obj
 0002:00005b60       ??_C@_1M@IHMHGAON@?$AAa?$AAr?$AA?9?$AAy?$AAe?$AA?$AA@ 0000000180025b60     libucrt:lcidtoname_downlevel.obj
 0002:00005b70       ??_C@_1BG@KDCPGJGB@?$AAa?$AAz?$AA?9?$AAa?$AAz?$AA?9?$AAc?$AAy?$AAr?$AAl?$AA?$AA@ 0000000180025b70     libucrt:lcidtoname_downlevel.obj
 0002:00005b88       ??_C@_1BG@IBCKDDOE@?$AAa?$AAz?$AA?9?$AAa?$AAz?$AA?9?$AAl?$AAa?$AAt?$AAn?$AA?$AA@ 0000000180025b88     libucrt:lcidtoname_downlevel.obj
 0002:00005ba0       ??_C@_1M@EGPFDCPD@?$AAb?$AAe?$AA?9?$AAb?$AAy?$AA?$AA@ 0000000180025ba0     libucrt:lcidtoname_downlevel.obj
 0002:00005bb0       ??_C@_1M@PCMGMCGC@?$AAb?$AAg?$AA?9?$AAb?$AAg?$AA?$AA@ 0000000180025bb0     libucrt:lcidtoname_downlevel.obj
 0002:00005bc0       ??_C@_1M@BJBMFGOB@?$AAb?$AAn?$AA?9?$AAi?$AAn?$AA?$AA@ 0000000180025bc0     libucrt:lcidtoname_downlevel.obj
 0002:00005bd0       ??_C@_1BG@EAKMMACD@?$AAb?$AAs?$AA?9?$AAb?$AAa?$AA?9?$AAl?$AAa?$AAt?$AAn?$AA?$AA@ 0000000180025bd0     libucrt:lcidtoname_downlevel.obj
 0002:00005be8       ??_C@_1M@KGADAODK@?$AAc?$AAa?$AA?9?$AAe?$AAs?$AA?$AA@ 0000000180025be8     libucrt:lcidtoname_downlevel.obj
 0002:00005bf8       ??_C@_1M@COAJPDHI@?$AAc?$AAs?$AA?9?$AAc?$AAz?$AA?$AA@ 0000000180025bf8     libucrt:lcidtoname_downlevel.obj
 0002:00005c08       ??_C@_1M@DHBHFONH@?$AAc?$AAy?$AA?9?$AAg?$AAb?$AA?$AA@ 0000000180025c08     libucrt:lcidtoname_downlevel.obj
 0002:00005c18       ??_C@_1M@IMGKELGA@?$AAd?$AAa?$AA?9?$AAd?$AAk?$AA?$AA@ 0000000180025c18     libucrt:lcidtoname_downlevel.obj
 0002:00005c28       ??_C@_1M@NNDGDNGA@?$AAd?$AAe?$AA?9?$AAa?$AAt?$AA?$AA@ 0000000180025c28     libucrt:lcidtoname_downlevel.obj
 0002:00005c38       ??_C@_1M@IKDBHEEM@?$AAd?$AAe?$AA?9?$AAc?$AAh?$AA?$AA@ 0000000180025c38     libucrt:lcidtoname_downlevel.obj
 0002:00005c48       ??_C@_1M@GFFOJMCJ@?$AAd?$AAe?$AA?9?$AAd?$AAe?$AA?$AA@ 0000000180025c48     libucrt:lcidtoname_downlevel.obj
 0002:00005c58       ??_C@_1M@MDNLKBPM@?$AAd?$AAe?$AA?9?$AAl?$AAi?$AA?$AA@ 0000000180025c58     libucrt:lcidtoname_downlevel.obj
 0002:00005c68       ??_C@_1M@NJBEEJNL@?$AAd?$AAe?$AA?9?$AAl?$AAu?$AA?$AA@ 0000000180025c68     libucrt:lcidtoname_downlevel.obj
 0002:00005c78       ??_C@_1O@GNNELBAP@?$AAd?$AAi?$AAv?$AA?9?$AAm?$AAv?$AA?$AA@ 0000000180025c78     libucrt:lcidtoname_downlevel.obj
 0002:00005c88       ??_C@_1M@EJLEOGAE@?$AAe?$AAl?$AA?9?$AAg?$AAr?$AA?$AA@ 0000000180025c88     libucrt:lcidtoname_downlevel.obj
 0002:00005c98       ??_C@_1M@GMPONJN@?$AAe?$AAn?$AA?9?$AAa?$AAu?$AA?$AA@ 0000000180025c98     libucrt:lcidtoname_downlevel.obj
 0002:00005ca8       ??_C@_1M@NIDIIPGF@?$AAe?$AAn?$AA?9?$AAb?$AAz?$AA?$AA@ 0000000180025ca8     libucrt:lcidtoname_downlevel.obj
 0002:00005cb8       ??_C@_1M@JEHMIMFO@?$AAe?$AAn?$AA?9?$AAc?$AAa?$AA?$AA@ 0000000180025cb8     libucrt:lcidtoname_downlevel.obj
 0002:00005cc8       ??_C@_1M@IGMJCDLA@?$AAe?$AAn?$AA?9?$AAc?$AAb?$AA?$AA@ 0000000180025cc8     libucrt:lcidtoname_downlevel.obj
 0002:00005cd8       ??_C@_1M@BNFIGBKG@?$AAe?$AAn?$AA?9?$AAg?$AAb?$AA?$AA@ 0000000180025cd8     libucrt:lcidtoname_downlevel.obj
 0002:00005ce8       ??_C@_1M@LKIFDIGP@?$AAe?$AAn?$AA?9?$AAi?$AAe?$AA?$AA@ 0000000180025ce8     libucrt:lcidtoname_downlevel.obj
 0002:00005cf8       ??_C@_1M@PJKFGCCO@?$AAe?$AAn?$AA?9?$AAj?$AAm?$AA?$AA@ 0000000180025cf8     libucrt:lcidtoname_downlevel.obj
 0002:00005d08       ??_C@_1M@KPPKEPBO@?$AAe?$AAn?$AA?9?$AAn?$AAz?$AA?$AA@ 0000000180025d08     libucrt:lcidtoname_downlevel.obj
 0002:00005d18       ??_C@_1M@GMDGLDOB@?$AAe?$AAn?$AA?9?$AAp?$AAh?$AA?$AA@ 0000000180025d18     libucrt:lcidtoname_downlevel.obj
 0002:00005d28       ??_C@_1M@ONGIBJNA@?$AAe?$AAn?$AA?9?$AAt?$AAt?$AA?$AA@ 0000000180025d28     libucrt:lcidtoname_downlevel.obj
 0002:00005d38       ??_C@_1M@LLODPCMM@?$AAe?$AAn?$AA?9?$AAu?$AAs?$AA?$AA@ 0000000180025d38     libucrt:lcidtoname_downlevel.obj
 0002:00005d48       ??_C@_1M@LAKFNPAN@?$AAe?$AAn?$AA?9?$AAz?$AAa?$AA?$AA@ 0000000180025d48     libucrt:lcidtoname_downlevel.obj
 0002:00005d58       ??_C@_1M@MFNHNHEO@?$AAe?$AAn?$AA?9?$AAz?$AAw?$AA?$AA@ 0000000180025d58     libucrt:lcidtoname_downlevel.obj
 0002:00005d68       ??_C@_1M@EJEINPHM@?$AAe?$AAs?$AA?9?$AAa?$AAr?$AA?$AA@ 0000000180025d68     libucrt:lcidtoname_downlevel.obj
 0002:00005d78       ??_C@_1M@GNKPCCJA@?$AAe?$AAs?$AA?9?$AAb?$AAo?$AA?$AA@ 0000000180025d78     libucrt:lcidtoname_downlevel.obj
 0002:00005d88       ??_C@_1M@LEEGFONL@?$AAe?$AAs?$AA?9?$AAc?$AAl?$AA?$AA@ 0000000180025d88     libucrt:lcidtoname_downlevel.obj
 0002:00005d98       ??_C@_1M@KGPDPBDF@?$AAe?$AAs?$AA?9?$AAc?$AAo?$AA?$AA@ 0000000180025d98     libucrt:lcidtoname_downlevel.obj
 0002:00005da8       ??_C@_1M@EIAHOHH@?$AAe?$AAs?$AA?9?$AAc?$AAr?$AA?$AA@ 0000000180025da8     libucrt:lcidtoname_downlevel.obj
 0002:00005db8       ??_C@_1M@LLPGMBIN@?$AAe?$AAs?$AA?9?$AAd?$AAo?$AA?$AA@ 0000000180025db8     libucrt:lcidtoname_downlevel.obj
 0002:00005dc8       ??_C@_1M@DKHMKNJA@?$AAe?$AAs?$AA?9?$AAe?$AAc?$AA?$AA@ 0000000180025dc8     libucrt:lcidtoname_downlevel.obj
 0002:00005dd8       ??_C@_1M@GKGFPKAP@?$AAe?$AAs?$AA?9?$AAe?$AAs?$AA?$AA@ 0000000180025dd8     libucrt:lcidtoname_downlevel.obj
 0002:00005de8       ??_C@_1M@LKHKGDLN@?$AAe?$AAs?$AA?9?$AAg?$AAt?$AA?$AA@ 0000000180025de8     libucrt:lcidtoname_downlevel.obj
 0002:00005df8       ??_C@_1M@HEIIGGJD@?$AAe?$AAs?$AA?9?$AAh?$AAn?$AA?$AA@ 0000000180025df8     libucrt:lcidtoname_downlevel.obj
 0002:00005e08       ??_C@_1M@FBDHPPGD@?$AAe?$AAs?$AA?9?$AAm?$AAx?$AA?$AA@ 0000000180025e08     libucrt:lcidtoname_downlevel.obj
 0002:00005e18       ??_C@_1M@DPAGLNDH@?$AAe?$AAs?$AA?9?$AAn?$AAi?$AA?$AA@ 0000000180025e18     libucrt:lcidtoname_downlevel.obj
 0002:00005e28       ??_C@_1M@MDGOPGDD@?$AAe?$AAs?$AA?9?$AAp?$AAa?$AA?$AA@ 0000000180025e28     libucrt:lcidtoname_downlevel.obj
 0002:00005e38       ??_C@_1M@EMAMGBGE@?$AAe?$AAs?$AA?9?$AAp?$AAe?$AA?$AA@ 0000000180025e38     libucrt:lcidtoname_downlevel.obj
 0002:00005e48       ??_C@_1M@IBMCAOEC@?$AAe?$AAs?$AA?9?$AAp?$AAr?$AA?$AA@ 0000000180025e48     libucrt:lcidtoname_downlevel.obj
 0002:00005e58       ??_C@_1M@FGMDIJED@?$AAe?$AAs?$AA?9?$AAp?$AAy?$AA?$AA@ 0000000180025e58     libucrt:lcidtoname_downlevel.obj
 0002:00005e68       ??_C@_1M@IIDEOLLL@?$AAe?$AAs?$AA?9?$AAs?$AAv?$AA?$AA@ 0000000180025e68     libucrt:lcidtoname_downlevel.obj
 0002:00005e78       ??_C@_1M@GAOBIPA@?$AAe?$AAs?$AA?9?$AAu?$AAy?$AA?$AA@ 0000000180025e78     libucrt:lcidtoname_downlevel.obj
 0002:00005e88       ??_C@_1M@JKFFICHJ@?$AAe?$AAs?$AA?9?$AAv?$AAe?$AA?$AA@ 0000000180025e88     libucrt:lcidtoname_downlevel.obj
 0002:00005e98       ??_C@_1M@PNMLOJDF@?$AAe?$AAt?$AA?9?$AAe?$AAe?$AA?$AA@ 0000000180025e98     libucrt:lcidtoname_downlevel.obj
 0002:00005ea8       ??_C@_1M@GHHLIKEI@?$AAe?$AAu?$AA?9?$AAe?$AAs?$AA?$AA@ 0000000180025ea8     libucrt:lcidtoname_downlevel.obj
 0002:00005eb8       ??_C@_1M@PBNONODE@?$AAf?$AAa?$AA?9?$AAi?$AAr?$AA?$AA@ 0000000180025eb8     libucrt:lcidtoname_downlevel.obj
 0002:00005ec8       ??_C@_1M@JEEHPMIL@?$AAf?$AAi?$AA?9?$AAf?$AAi?$AA?$AA@ 0000000180025ec8     libucrt:lcidtoname_downlevel.obj
 0002:00005ed8       ??_C@_1M@LMDCNDBA@?$AAf?$AAo?$AA?9?$AAf?$AAo?$AA?$AA@ 0000000180025ed8     libucrt:lcidtoname_downlevel.obj
 0002:00005ee8       ??_C@_1M@JKEOHLDK@?$AAf?$AAr?$AA?9?$AAb?$AAe?$AA?$AA@ 0000000180025ee8     libucrt:lcidtoname_downlevel.obj
 0002:00005ef8       ??_C@_1M@NOHADPMI@?$AAf?$AAr?$AA?9?$AAc?$AAa?$AA?$AA@ 0000000180025ef8     libucrt:lcidtoname_downlevel.obj
 0002:00005f08       ??_C@_1M@KDHIHAEC@?$AAf?$AAr?$AA?9?$AAc?$AAh?$AA?$AA@ 0000000180025f08     libucrt:lcidtoname_downlevel.obj
 0002:00005f18       ??_C@_1M@MMBBFGAK@?$AAf?$AAr?$AA?9?$AAf?$AAr?$AA?$AA@ 0000000180025f18     libucrt:lcidtoname_downlevel.obj
 0002:00005f28       ??_C@_1M@PAFNENNF@?$AAf?$AAr?$AA?9?$AAl?$AAu?$AA?$AA@ 0000000180025f28     libucrt:lcidtoname_downlevel.obj
 0002:00005f38       ??_C@_1M@EOHDJGDD@?$AAf?$AAr?$AA?9?$AAm?$AAc?$AA?$AA@ 0000000180025f38     libucrt:lcidtoname_downlevel.obj
 0002:00005f48       ??_C@_1M@FAPLLOPF@?$AAg?$AAl?$AA?9?$AAe?$AAs?$AA?$AA@ 0000000180025f48     libucrt:lcidtoname_downlevel.obj
 0002:00005f58       ??_C@_1M@FOPBFLOO@?$AAg?$AAu?$AA?9?$AAi?$AAn?$AA?$AA@ 0000000180025f58     libucrt:lcidtoname_downlevel.obj
 0002:00005f68       ??_C@_1M@KBMCINPM@?$AAh?$AAe?$AA?9?$AAi?$AAl?$AA?$AA@ 0000000180025f68     libucrt:lcidtoname_downlevel.obj
 0002:00005f78       ??_C@_1M@BBPHKFPJ@?$AAh?$AAi?$AA?9?$AAi?$AAn?$AA?$AA@ 0000000180025f78     libucrt:lcidtoname_downlevel.obj
 0002:00005f88       ??_C@_1M@PMBNDPHD@?$AAh?$AAr?$AA?9?$AAb?$AAa?$AA?$AA@ 0000000180025f88     libucrt:lcidtoname_downlevel.obj
 0002:00005f98       ??_C@_1M@BPCKOEGE@?$AAh?$AAr?$AA?9?$AAh?$AAr?$AA?$AA@ 0000000180025f98     libucrt:lcidtoname_downlevel.obj
 0002:00005fa8       ??_C@_1M@GACBMHKE@?$AAh?$AAu?$AA?9?$AAh?$AAu?$AA?$AA@ 0000000180025fa8     libucrt:lcidtoname_downlevel.obj
 0002:00005fb8       ??_C@_1M@MILPAJJC@?$AAh?$AAy?$AA?9?$AAa?$AAm?$AA?$AA@ 0000000180025fb8     libucrt:lcidtoname_downlevel.obj
 0002:00005fc8       ??_C@_1M@BABBICEC@?$AAi?$AAd?$AA?9?$AAi?$AAd?$AA?$AA@ 0000000180025fc8     libucrt:lcidtoname_downlevel.obj
 0002:00005fd8       ??_C@_1M@BIKNHHPF@?$AAi?$AAs?$AA?9?$AAi?$AAs?$AA?$AA@ 0000000180025fd8     libucrt:lcidtoname_downlevel.obj
 0002:00005fe8       ??_C@_1M@NMPCJPHE@?$AAi?$AAt?$AA?9?$AAc?$AAh?$AA?$AA@ 0000000180025fe8     libucrt:lcidtoname_downlevel.obj
 0002:00005ff8       ??_C@_1M@GHKGFEDF@?$AAi?$AAt?$AA?9?$AAi?$AAt?$AA?$AA@ 0000000180025ff8     libucrt:lcidtoname_downlevel.obj
 0002:00006008       ??_C@_1M@NIEJCJJA@?$AAj?$AAa?$AA?9?$AAj?$AAp?$AA?$AA@ 0000000180026008     libucrt:lcidtoname_downlevel.obj
 0002:00006018       ??_C@_1M@JILFNBIM@?$AAk?$AAa?$AA?9?$AAg?$AAe?$AA?$AA@ 0000000180026018     libucrt:lcidtoname_downlevel.obj
 0002:00006028       ??_C@_1M@PACPMGPH@?$AAk?$AAk?$AA?9?$AAk?$AAz?$AA?$AA@ 0000000180026028     libucrt:lcidtoname_downlevel.obj
 0002:00006038       ??_C@_1M@IELFGMHA@?$AAk?$AAn?$AA?9?$AAi?$AAn?$AA?$AA@ 0000000180026038     libucrt:lcidtoname_downlevel.obj
 0002:00006048       ??_C@_1O@IBBJHCH@?$AAk?$AAo?$AAk?$AA?9?$AAi?$AAn?$AA?$AA@ 0000000180026048     libucrt:lcidtoname_downlevel.obj
 0002:00006058       ??_C@_1M@DMHAEOGC@?$AAk?$AAo?$AA?9?$AAk?$AAr?$AA?$AA@ 0000000180026058     libucrt:lcidtoname_downlevel.obj
 0002:00006068       ??_C@_1M@HBAHBIGA@?$AAk?$AAy?$AA?9?$AAk?$AAg?$AA?$AA@ 0000000180026068     libucrt:lcidtoname_downlevel.obj
 0002:00006078       ??_C@_1M@KPMILCJG@?$AAl?$AAt?$AA?9?$AAl?$AAt?$AA?$AA@ 0000000180026078     libucrt:lcidtoname_downlevel.obj
 0002:00006088       ??_C@_1M@BDEKKCA@?$AAl?$AAv?$AA?9?$AAl?$AAv?$AA?$AA@ 0000000180026088     libucrt:lcidtoname_downlevel.obj
 0002:00006098       ??_C@_1M@ELCKCCJJ@?$AAm?$AAi?$AA?9?$AAn?$AAz?$AA?$AA@ 0000000180026098     libucrt:lcidtoname_downlevel.obj
 0002:000060a8       ??_C@_1M@CBOOLAPA@?$AAm?$AAk?$AA?9?$AAm?$AAk?$AA?$AA@ 00000001800260a8     libucrt:lcidtoname_downlevel.obj
 0002:000060b8       ??_C@_1M@GPHNBJKN@?$AAm?$AAl?$AA?9?$AAi?$AAn?$AA?$AA@ 00000001800260b8     libucrt:lcidtoname_downlevel.obj
 0002:000060c8       ??_C@_1M@PABJILIG@?$AAm?$AAn?$AA?9?$AAm?$AAn?$AA?$AA@ 00000001800260c8     libucrt:lcidtoname_downlevel.obj
 0002:000060d8       ??_C@_1M@FGBKKIPG@?$AAm?$AAr?$AA?9?$AAi?$AAn?$AA?$AA@ 00000001800260d8     libucrt:lcidtoname_downlevel.obj
 0002:000060e8       ??_C@_1M@NDBPDDAL@?$AAm?$AAs?$AA?9?$AAb?$AAn?$AA?$AA@ 00000001800260e8     libucrt:lcidtoname_downlevel.obj
 0002:000060f8       ??_C@_1M@OPIHOOPI@?$AAm?$AAs?$AA?9?$AAm?$AAy?$AA?$AA@ 00000001800260f8     libucrt:lcidtoname_downlevel.obj
 0002:00006108       ??_C@_1M@PPDBCNFM@?$AAm?$AAt?$AA?9?$AAm?$AAt?$AA?$AA@ 0000000180026108     libucrt:lcidtoname_downlevel.obj
 0002:00006118       ??_C@_1M@KDJDKMDD@?$AAn?$AAb?$AA?9?$AAn?$AAo?$AA?$AA@ 0000000180026118     libucrt:lcidtoname_downlevel.obj
 0002:00006128       ??_C@_1M@KFCFLMJP@?$AAn?$AAl?$AA?9?$AAb?$AAe?$AA?$AA@ 0000000180026128     libucrt:lcidtoname_downlevel.obj
 0002:00006138       ??_C@_1M@KPOPDDGO@?$AAn?$AAl?$AA?9?$AAn?$AAl?$AA?$AA@ 0000000180026138     libucrt:lcidtoname_downlevel.obj
 0002:00006148       ??_C@_1M@LJKPEMLN@?$AAn?$AAn?$AA?9?$AAn?$AAo?$AA?$AA@ 0000000180026148     libucrt:lcidtoname_downlevel.obj
 0002:00006158       ??_C@_1M@BDGHHBFL@?$AAn?$AAs?$AA?9?$AAz?$AAa?$AA?$AA@ 0000000180026158     libucrt:lcidtoname_downlevel.obj
 0002:00006168       ??_C@_1M@IDEHOAP@?$AAp?$AAa?$AA?9?$AAi?$AAn?$AA?$AA@ 0000000180026168     libucrt:lcidtoname_downlevel.obj
 0002:00006178       ??_C@_1M@HDBKGOGH@?$AAp?$AAl?$AA?9?$AAp?$AAl?$AA?$AA@ 0000000180026178     libucrt:lcidtoname_downlevel.obj
 0002:00006188       ??_C@_1M@LJLLCMEH@?$AAp?$AAt?$AA?9?$AAb?$AAr?$AA?$AA@ 0000000180026188     libucrt:lcidtoname_downlevel.obj
 0002:00006198       ??_C@_1M@NCMONAAL@?$AAp?$AAt?$AA?9?$AAp?$AAt?$AA?$AA@ 0000000180026198     libucrt:lcidtoname_downlevel.obj
 0002:000061a8       ??_C@_1O@EAKMAJDN@?$AAq?$AAu?$AAz?$AA?9?$AAb?$AAo?$AA?$AA@ 00000001800261a8     libucrt:lcidtoname_downlevel.obj
 0002:000061b8       ??_C@_1O@BHHPIGDN@?$AAq?$AAu?$AAz?$AA?9?$AAe?$AAc?$AA?$AA@ 00000001800261b8     libucrt:lcidtoname_downlevel.obj
 0002:000061c8       ??_C@_1O@GBAPEKMJ@?$AAq?$AAu?$AAz?$AA?9?$AAp?$AAe?$AA?$AA@ 00000001800261c8     libucrt:lcidtoname_downlevel.obj
 0002:000061d8       ??_C@_1M@CLGLEFBO@?$AAr?$AAo?$AA?9?$AAr?$AAo?$AA?$AA@ 00000001800261d8     libucrt:lcidtoname_downlevel.obj
 0002:000061e8       ??_C@_1M@CEEDODME@?$AAr?$AAu?$AA?9?$AAr?$AAu?$AA?$AA@ 00000001800261e8     libucrt:lcidtoname_downlevel.obj
 0002:000061f8       ??_C@_1M@HPKKKMPP@?$AAs?$AAa?$AA?9?$AAi?$AAn?$AA?$AA@ 00000001800261f8     libucrt:lcidtoname_downlevel.obj
 0002:00006208       ??_C@_1M@BKMAIGOJ@?$AAs?$AAe?$AA?9?$AAf?$AAi?$AA?$AA@ 0000000180026208     libucrt:lcidtoname_downlevel.obj
 0002:00006218       ??_C@_1M@NDPIFLFI@?$AAs?$AAe?$AA?9?$AAn?$AAo?$AA?$AA@ 0000000180026218     libucrt:lcidtoname_downlevel.obj
 0002:00006228       ??_C@_1M@DANKKHJ@?$AAs?$AAe?$AA?9?$AAs?$AAe?$AA?$AA@ 0000000180026228     libucrt:lcidtoname_downlevel.obj
 0002:00006238       ??_C@_1M@PNBLONPJ@?$AAs?$AAk?$AA?9?$AAs?$AAk?$AA?$AA@ 0000000180026238     libucrt:lcidtoname_downlevel.obj
 0002:00006248       ??_C@_1M@LFMODOAL@?$AAs?$AAl?$AA?9?$AAs?$AAi?$AA?$AA@ 0000000180026248     libucrt:lcidtoname_downlevel.obj
 0002:00006258       ??_C@_1O@DFKOMPG@?$AAs?$AAm?$AAa?$AA?9?$AAn?$AAo?$AA?$AA@ 0000000180026258     libucrt:lcidtoname_downlevel.obj
 0002:00006268       ??_C@_1O@NDKPBNNH@?$AAs?$AAm?$AAa?$AA?9?$AAs?$AAe?$AA?$AA@ 0000000180026268     libucrt:lcidtoname_downlevel.obj
 0002:00006278       ??_C@_1O@PLLKBHAB@?$AAs?$AAm?$AAj?$AA?9?$AAn?$AAo?$AA?$AA@ 0000000180026278     libucrt:lcidtoname_downlevel.obj
 0002:00006288       ??_C@_1O@CLEPOGCA@?$AAs?$AAm?$AAj?$AA?9?$AAs?$AAe?$AA?$AA@ 0000000180026288     libucrt:lcidtoname_downlevel.obj
 0002:00006298       ??_C@_1O@DLGJGKMK@?$AAs?$AAm?$AAn?$AA?9?$AAf?$AAi?$AA?$AA@ 0000000180026298     libucrt:lcidtoname_downlevel.obj
 0002:000062a8       ??_C@_1O@OJDJGAJC@?$AAs?$AAm?$AAs?$AA?9?$AAf?$AAi?$AA?$AA@ 00000001800262a8     libucrt:lcidtoname_downlevel.obj
 0002:000062b8       ??_C@_1M@BOFOGHPB@?$AAs?$AAq?$AA?9?$AAa?$AAl?$AA?$AA@ 00000001800262b8     libucrt:lcidtoname_downlevel.obj
 0002:000062c8       ??_C@_1BG@LJBBIPGB@?$AAs?$AAr?$AA?9?$AAb?$AAa?$AA?9?$AAc?$AAy?$AAr?$AAl?$AA?$AA@ 00000001800262c8     libucrt:lcidtoname_downlevel.obj
 0002:000062e0       ??_C@_1BG@JLBENFOE@?$AAs?$AAr?$AA?9?$AAb?$AAa?$AA?9?$AAl?$AAa?$AAt?$AAn?$AA?$AA@ 00000001800262e0     libucrt:lcidtoname_downlevel.obj
 0002:000062f8       ??_C@_1BG@KODPNHE@?$AAs?$AAr?$AA?9?$AAs?$AAp?$AA?9?$AAc?$AAy?$AAr?$AAl?$AA?$AA@ 00000001800262f8     libucrt:lcidtoname_downlevel.obj
 0002:00006310       ??_C@_1BG@CIOGKHPB@?$AAs?$AAr?$AA?9?$AAs?$AAp?$AA?9?$AAl?$AAa?$AAt?$AAn?$AA?$AA@ 0000000180026310     libucrt:lcidtoname_downlevel.obj
 0002:00006328       ??_C@_1M@NGFJLMAC@?$AAs?$AAv?$AA?9?$AAf?$AAi?$AA?$AA@ 0000000180026328     libucrt:lcidtoname_downlevel.obj
 0002:00006338       ??_C@_1M@MPJEJAJC@?$AAs?$AAv?$AA?9?$AAs?$AAe?$AA?$AA@ 0000000180026338     libucrt:lcidtoname_downlevel.obj
 0002:00006348       ??_C@_1M@MPNDHLFK@?$AAs?$AAw?$AA?9?$AAk?$AAe?$AA?$AA@ 0000000180026348     libucrt:lcidtoname_downlevel.obj
 0002:00006358       ??_C@_1O@KOHBJJI@?$AAs?$AAy?$AAr?$AA?9?$AAs?$AAy?$AA?$AA@ 0000000180026358     libucrt:lcidtoname_downlevel.obj
 0002:00006368       ??_C@_1M@LDCEFHA@?$AAt?$AAa?$AA?9?$AAi?$AAn?$AA?$AA@ 0000000180026368     libucrt:lcidtoname_downlevel.obj
 0002:00006378       ??_C@_1M@CNJOFAK@?$AAt?$AAe?$AA?9?$AAi?$AAn?$AA?$AA@ 0000000180026378     libucrt:lcidtoname_downlevel.obj
 0002:00006388       ??_C@_1M@GNAECACD@?$AAt?$AAh?$AA?9?$AAt?$AAh?$AA?$AA@ 0000000180026388     libucrt:lcidtoname_downlevel.obj
 0002:00006398       ??_C@_1M@CHBIHOJO@?$AAt?$AAn?$AA?9?$AAz?$AAa?$AA?$AA@ 0000000180026398     libucrt:lcidtoname_downlevel.obj
 0002:000063a8       ??_C@_1M@GCCMIGPJ@?$AAt?$AAr?$AA?9?$AAt?$AAr?$AA?$AA@ 00000001800263a8     libucrt:lcidtoname_downlevel.obj
 0002:000063b8       ??_C@_1M@CELMCNBK@?$AAt?$AAt?$AA?9?$AAr?$AAu?$AA?$AA@ 00000001800263b8     libucrt:lcidtoname_downlevel.obj
 0002:000063c8       ??_C@_1M@KLMCELGA@?$AAu?$AAk?$AA?9?$AAu?$AAa?$AA?$AA@ 00000001800263c8     libucrt:lcidtoname_downlevel.obj
 0002:000063d8       ??_C@_1M@EPAJJAJF@?$AAu?$AAr?$AA?9?$AAp?$AAk?$AA?$AA@ 00000001800263d8     libucrt:lcidtoname_downlevel.obj
 0002:000063e8       ??_C@_1BG@GEGPMCDJ@?$AAu?$AAz?$AA?9?$AAu?$AAz?$AA?9?$AAc?$AAy?$AAr?$AAl?$AA?$AA@ 00000001800263e8     libucrt:lcidtoname_downlevel.obj
 0002:00006400       ??_C@_1BG@EGGKJILM@?$AAu?$AAz?$AA?9?$AAu?$AAz?$AA?9?$AAl?$AAa?$AAt?$AAn?$AA?$AA@ 0000000180026400     libucrt:lcidtoname_downlevel.obj
 0002:00006418       ??_C@_1M@GFOCLFF@?$AAv?$AAi?$AA?9?$AAv?$AAn?$AA?$AA@ 0000000180026418     libucrt:lcidtoname_downlevel.obj
 0002:00006428       ??_C@_1M@CPAMEDFI@?$AAx?$AAh?$AA?9?$AAz?$AAa?$AA?$AA@ 0000000180026428     libucrt:lcidtoname_downlevel.obj
 0002:00006438       ??_C@_1O@EBKIFIGN@?$AAz?$AAh?$AA?9?$AAc?$AAh?$AAs?$AA?$AA@ 0000000180026438     libucrt:lcidtoname_downlevel.obj
 0002:00006448       ??_C@_1O@NMHPGANE@?$AAz?$AAh?$AA?9?$AAc?$AAh?$AAt?$AA?$AA@ 0000000180026448     libucrt:lcidtoname_downlevel.obj
 0002:00006458       ??_C@_1M@LPINJOMC@?$AAz?$AAh?$AA?9?$AAc?$AAn?$AA?$AA@ 0000000180026458     libucrt:lcidtoname_downlevel.obj
 0002:00006468       ??_C@_1M@OCJEJODD@?$AAz?$AAh?$AA?9?$AAh?$AAk?$AA?$AA@ 0000000180026468     libucrt:lcidtoname_downlevel.obj
 0002:00006478       ??_C@_1M@DNDLJINH@?$AAz?$AAh?$AA?9?$AAm?$AAo?$AA?$AA@ 0000000180026478     libucrt:lcidtoname_downlevel.obj
 0002:00006488       ??_C@_1M@MBFDNDND@?$AAz?$AAh?$AA?9?$AAs?$AAg?$AA?$AA@ 0000000180026488     libucrt:lcidtoname_downlevel.obj
 0002:00006498       ??_C@_1M@IMEPLEPE@?$AAz?$AAh?$AA?9?$AAt?$AAw?$AA?$AA@ 0000000180026498     libucrt:lcidtoname_downlevel.obj
 0002:000064a8       ??_C@_1M@BBGHNHJP@?$AAz?$AAu?$AA?9?$AAz?$AAa?$AA?$AA@ 00000001800264a8     libucrt:lcidtoname_downlevel.obj
 0002:000064c0       ?large_power_data@?1??multiply_by_power_of_ten@__crt_strtox@@YA_NAEAUbig_integer@2@I@Z@4QBIB 00000001800264c0     libucrt:cfout.obj
 0002:00006dd0       ?large_power_indices@?1??multiply_by_power_of_ten@__crt_strtox@@YA_NAEAUbig_integer@2@I@Z@4QBUunpack_index@?1??12@YA_N0I@Z@B 0000000180026dd0     libucrt:cfout.obj
 0002:00006e68       ?small_powers_of_ten@?1??multiply_by_power_of_ten@__crt_strtox@@YA_NAEAUbig_integer@2@I@Z@4QBIB 0000000180026e68     libucrt:cfout.obj
 0002:00006e8c       ??_C@_01GBGANLPD@0?$AA@    0000000180026e8c     libucrt:cfout.obj
 0002:00006e90       ??_C@_05DNEBIAHO@1?$CDINF?$AA@ 0000000180026e90     libucrt:cfout.obj
 0002:00006e98       ??_C@_06IMKFLFPG@1?$CDQNAN?$AA@ 0000000180026e98     libucrt:cfout.obj
 0002:00006ea0       ??_C@_06PGGFOGJG@1?$CDSNAN?$AA@ 0000000180026ea0     libucrt:cfout.obj
 0002:00006ea8       ??_C@_05PHHOCPM@1?$CDIND?$AA@ 0000000180026ea8     libucrt:cfout.obj
 0002:00006eb0       __real@3ff0000000000000    0000000180026eb0     libucrt:ceil.obj
 0002:00007138       ??_C@_1BA@BALFACEM@?$AAC?$AAO?$AAN?$AAO?$AAU?$AAT?$AA$?$AA?$AA@ 0000000180027138     libucrt:initcon.obj
 0002:00007150       __log10_256_lead           0000000180027150     libucrt:log10_256_lead_tail_table.obj
 0002:00007960       __log10_256_tail           0000000180027960     libucrt:log10_256_lead_tail_table.obj
 0002:00008170       __log_F_inv_qword          0000000180028170     libucrt:log_f_inv_qword_table.obj
 0002:00008980       ??_C@_05HGHHAHAP@log10?$AA@ 0000000180028980     libucrt:log_special.obj
 0002:000089a0       ??_C@_1BK@DBDEIDLH@?$AAK?$AAE?$AAR?$AAN?$AAE?$AAL?$AA3?$AA2?$AA?4?$AAD?$AAL?$AAL?$AA?$AA@ 00000001800289a0     DelayImp:delayhlp.obj
 0002:000089c0       ??_C@_0BI@OMNLIJDB@AcquireSRWLockExclusive?$AA@ 00000001800289c0     DelayImp:delayhlp.obj
 0002:000089d8       ??_C@_0BI@HMIEPCNJ@ReleaseSRWLockExclusive?$AA@ 00000001800289d8     DelayImp:delayhlp.obj
 0002:000089f0       __pfnDliFailureHook2       00000001800289f0     DelayImp:delayhk1.obj
 0002:00008a00       _load_config_used          0000000180028a00     LIBCMT:loadcfg.obj
 0002:00008b00       ??_C@_0BA@JFNIOLAK@string?5too?5long?$AA@ 0000000180028b00     scrypt_common.obj
 0002:00008b10       ??_C@_07IPNMCAN@success?$AA@ 0000000180028b10     scrypt_common.obj
 0002:00008b18       ??_C@_0CH@HOFNEDKD@getrlimit?5or?5sysctl?$CIhw?4usermem?$CJ?5@ 0000000180028b18     scrypt_common.obj
 0002:00008b40       ??_C@_0CF@KLABMAOP@clock_getres?5or?5clock_gettime?5fa@ 0000000180028b40     scrypt_common.obj
 0002:00008b68       ??_C@_0BM@PELKOOBE@error?5computing?5derived?5key?$AA@ 0000000180028b68     scrypt_common.obj
 0002:00008b88       ??_C@_0CG@OEOCPJCD@could?5not?5read?5salt?5from?5?1dev?1ur@ 0000000180028b88     scrypt_common.obj
 0002:00008bb0       ??_C@_0BB@LALBBILB@error?5in?5OpenSSL?$AA@ 0000000180028bb0     scrypt_common.obj
 0002:00008bc8       ??_C@_0O@IMHFIAOC@malloc?5failed?$AA@ 0000000180028bc8     scrypt_common.obj
 0002:00008bd8       ??_C@_0CL@ECCMPNEC@data?5is?5not?5a?5valid?5scrypt?9encry@ 0000000180028bd8     scrypt_common.obj
 0002:00008c08       ??_C@_0BL@LEDPCGLM@unrecognized?5scrypt?5format?$AA@ 0000000180028c08     scrypt_common.obj
 0002:00008c28       ??_C@_0CL@MEKMMADP@decrypting?5file?5would?5take?5too?5m@ 0000000180028c28     scrypt_common.obj
 0002:00008c58       ??_C@_0CE@OBGMJCII@decrypting?5file?5would?5take?5too?5l@ 0000000180028c58     scrypt_common.obj
 0002:00008c80       ??_C@_0BG@DFBEGIDH@password?5is?5incorrect?$AA@ 0000000180028c80     scrypt_common.obj
 0002:00008c98       ??_C@_0BK@FLCPNNLJ@error?5writing?5output?5file?$AA@ 0000000180028c98     scrypt_common.obj
 0002:00008cb8       ??_C@_0BJ@HGNNPBNC@error?5reading?5input?5file?$AA@ 0000000180028cb8     scrypt_common.obj
 0002:00008cd8       ??_C@_0N@CBGOPKMC@error?5unkown?$AA@ 0000000180028cd8     scrypt_common.obj
 0002:00008ce8       ??_C@_03NLJIHOMM@?5?9?5?$AA@ 0000000180028ce8     scrypt_common.obj
 0002:00008cec       ??_C@_01NANMIPIL@N?$AA@    0000000180028cec     scrypt_params_async.obj
 0002:00008cf0       ??_C@_01KDCPPGHE@r?$AA@    0000000180028cf0     scrypt_params_async.obj
 0002:00008cf4       ??_C@_01JBBJJEPG@p?$AA@    0000000180028cf4     scrypt_params_async.obj
 0002:00008cf8       ??_7AsyncWorker@Nan@@6B@   0000000180028cf8     scrypt_params_async.obj
 0002:00008d28       ??_7ScryptParamsAsyncWorker@@6B@ 0000000180028d28     scrypt_params_async.obj
 0002:00008d58       ??_7ScryptAsyncWorker@@6B@ 0000000180028d58     scrypt_params_async.obj
 0002:00008d90       ??_C@_1JC@PMHMNEKK@?$AAc?$AA?3?$AA?2?$AAu?$AAs?$AAe?$AAr?$AAs?$AA?2?$AAl?$AAl?$AAo?$AAy?$AAa?$AA?2?$AAd?$AAo?$AAc?$AAu?$AAm?$AAe?$AAn?$AAt?$AAs?$AA?2?$AAd?$AAd?$AAa?$AA?2?$AAb?$AAr?$AAi@ 0000000180028d90     scrypt_kdf_async.obj
 0002:00008e30       ??_C@_1FM@LOELJOFK@?$AAs?$AAi?$AAz?$AAe?$AA?5?$AA?$DM?$AA?$DN?$AA?5?$AAi?$AAm?$AAp?$AA?3?$AA?3?$AAk?$AAM?$AAa?$AAx?$AAL?$AAe?$AAn?$AAg?$AAt?$AAh?$AA?5?$AA?$CG?$AA?$CG?$AA?5?$AA?$CC?$AAt?$AAo?$AAo?$AA?5@ 0000000180028e30     scrypt_kdf_async.obj
 0002:00008e90       ??_C@_09EDMIOGPB@keyBuffer?$AA@ 0000000180028e90     scrypt_kdf_async.obj
 0002:00008ea0       ??_C@_09BCNNNAMP@KDFResult?$AA@ 0000000180028ea0     scrypt_kdf_async.obj
 0002:00008eac       ??_C@_04OKLIMCN@salt?$AA@  0000000180028eac     scrypt_kdf_async.obj
 0002:00008eb8       ??_C@_0BG@OMGPOKGA@ScryptPeristentObject?$AA@ 0000000180028eb8     scrypt_kdf_async.obj
 0002:00008ed0       ??_7ScryptKDFAsyncWorker@@6B@ 0000000180028ed0     scrypt_kdf_async.obj
 0002:00008f00       ??_C@_09MFPCDCBA@KDFBuffer?$AA@ 0000000180028f00     scrypt_kdf-verify_async.obj
 0002:00008f10       ??_C@_09MJFOFCB@KeyBuffer?$AA@ 0000000180028f10     scrypt_kdf-verify_async.obj
 0002:00008f20       ??_7ScryptKDFVerifyAsyncWorker@@6B@ 0000000180028f20     scrypt_kdf-verify_async.obj
 0002:00008f50       ??_C@_0L@NPKHFNEG@HashBuffer?$AA@ 0000000180028f50     scrypt_hash_async.obj
 0002:00008f60       ??_C@_0L@KBNLHAN@SaltBuffer?$AA@ 0000000180028f60     scrypt_hash_async.obj
 0002:00008f70       ??_7ScryptHashAsyncWorker@@6B@ 0000000180028f70     scrypt_hash_async.obj
 0002:00008fa0       ??_C@_0L@JEKBOONB@paramsSync?$AA@ 0000000180028fa0     scrypt_node.obj
 0002:00008fac       ??_C@_06JMGHNNK@params?$AA@ 0000000180028fac     scrypt_node.obj
 0002:00008fb8       ??_C@_07NDBFJMIJ@kdfSync?$AA@ 0000000180028fb8     scrypt_node.obj
 0002:00008fc0       ??_C@_03EOOFPPDM@kdf?$AA@  0000000180028fc0     scrypt_node.obj
 0002:00008fc8       ??_C@_0L@FIGOIMB@verifySync?$AA@ 0000000180028fc8     scrypt_node.obj
 0002:00008fd4       ??_C@_06MCIJCFHC@verify?$AA@ 0000000180028fd4     scrypt_node.obj
 0002:00008fe0       ??_C@_08LODGKLAK@hashSync?$AA@ 0000000180028fe0     scrypt_node.obj
 0002:00008fec       ??_C@_04OIJGJDKO@hash?$AA@ 0000000180028fec     scrypt_node.obj
 0002:00009000       ??_C@_0FF@FIMMDDFM@c?3?2users?2lloya?2documents?2dda?2bri@ 0000000180029000     scrypt_node.obj
 0002:00009058       ??_C@_06LLPEBPNI@scrypt?$AA@ 0000000180029058     scrypt_node.obj
 0002:00009060       ??_C@_08HCOMDCCD@iojs?4exe?$AA@ 0000000180029060     win_delay_load_hook.obj
 0002:00009070       ??_C@_08JDDNMFDB@node?4exe?$AA@ 0000000180029070     win_delay_load_hook.obj
 0002:00009080       __pfnDliNotifyHook2        0000000180029080     win_delay_load_hook.obj
 0002:000090b0       ??_C@_1OG@GNNNKPME@?$AAc?$AA?3?$AA?2?$AAu?$AAs?$AAe?$AAr?$AAs?$AA?2?$AAl?$AAl?$AAo?$AAy?$AAa?$AA?2?$AAd?$AAo?$AAc?$AAu?$AAm?$AAe?$AAn?$AAt?$AAs?$AA?2?$AAd?$AAd?$AAa?$AA?2?$AAb?$AAr?$AAi@ 00000001800290b0     scrypt_lib:sha256.obj
 0002:000091a0       ??_C@_1EG@KGGIIOCD@?$AAd?$AAk?$AAL?$AAe?$AAn?$AA?5?$AA?$DM?$AA?$DN?$AA?5?$AA3?$AA2?$AA?5?$AA?$CK?$AA?5?$AA?$CI?$AAs?$AAi?$AAz?$AAe?$AA_?$AAt?$AA?$CJ?$AA?$CI?$AAU?$AAI?$AAN?$AAT?$AA3?$AA2?$AA_?$AAM?$AAA@ 00000001800291a0     scrypt_lib:sha256.obj
 0002:000091e8       ??_C@_0O@GFBIGFGC@pleaseletmein?$AA@ 00000001800291e8     scrypt_lib:crypto_scrypt.obj
 0002:000091f8       ??_C@_0P@HOJBDGEG@SodiumChloride?$AA@ 00000001800291f8     scrypt_lib:crypto_scrypt.obj
 0002:00009208       ??_C@_0DD@JFPMEIE@Generic?5scrypt?5code?5is?5broken?5?9?5@ 0000000180029208     scrypt_lib:crypto_scrypt.obj
 0002:00009240       ??_C@_09GPGAJHPD@?$CIunknown?$CJ?$AA@ 0000000180029240     scrypt_lib:warnp.obj
 0002:0000924c       ??_C@_02DKCKIIND@?$CFs?$AA@ 000000018002924c     scrypt_lib:warnp.obj
 0002:00009250       ??_C@_02LMMGGCAJ@?3?5?$AA@ 0000000180029250     scrypt_lib:warnp.obj
 0002:00009254       ??_C@_01EEMJAFIK@?6?$AA@   0000000180029254     scrypt_lib:warnp.obj
 0002:000092a8       __real@3e112e0be826d695    00000001800292a8     scrypt_lib:scryptenc_cpuperf.obj
 0002:000092b0       __real@3f50624dd2f1a9fc    00000001800292b0     scrypt_lib:scryptenc_cpuperf.obj
 0002:000092b8       __real@3fd0000000000000    00000001800292b8     scrypt_wrapper:pickparams.obj
 0002:000092c0       __real@3fe0000000000000    00000001800292c0     scrypt_wrapper:memlimit.obj
 0002:000092c8       __real@40e0000000000000    00000001800292c8     scrypt_wrapper:pickparams.obj
 0002:000092d0       __real@41cfffffff800000    00000001800292d0     scrypt_wrapper:pickparams.obj
 0002:000092d8       __real@43e0000000000000    00000001800292d8     scrypt_wrapper:memlimit.obj
 0002:000092e0       __real@43f0000000000000    00000001800292e0     scrypt_wrapper:memlimit.obj
 0002:00009728       ??_R4exception@std@@6B@    0000000180029728     libcpmt:xthrow.obj
 0002:00009750       ??_R3exception@std@@8      0000000180029750     libcpmt:xthrow.obj
 0002:00009768       ??_R2exception@std@@8      0000000180029768     libcpmt:xthrow.obj
 0002:00009778       ??_R1A@?0A@EA@exception@std@@8 0000000180029778     libcpmt:xthrow.obj
 0002:000097a0       ??_R4bad_alloc@std@@6B@    00000001800297a0     libcpmt:xthrow.obj
 0002:000097c8       ??_R3bad_alloc@std@@8      00000001800297c8     libcpmt:xthrow.obj
 0002:000097e0       ??_R2bad_alloc@std@@8      00000001800297e0     libcpmt:xthrow.obj
 0002:000097f8       ??_R1A@?0A@EA@bad_alloc@std@@8 00000001800297f8     libcpmt:xthrow.obj
 0002:00009820       ??_R4logic_error@std@@6B@  0000000180029820     libcpmt:xthrow.obj
 0002:00009848       ??_R3logic_error@std@@8    0000000180029848     libcpmt:xthrow.obj
 0002:00009860       ??_R2logic_error@std@@8    0000000180029860     libcpmt:xthrow.obj
 0002:00009878       ??_R1A@?0A@EA@logic_error@std@@8 0000000180029878     libcpmt:xthrow.obj
 0002:000098a0       ??_R4length_error@std@@6B@ 00000001800298a0     libcpmt:xthrow.obj
 0002:000098c8       ??_R3length_error@std@@8   00000001800298c8     libcpmt:xthrow.obj
 0002:000098e0       ??_R2length_error@std@@8   00000001800298e0     libcpmt:xthrow.obj
 0002:00009900       ??_R1A@?0A@EA@length_error@std@@8 0000000180029900     libcpmt:xthrow.obj
 0002:00009928       ??_R4type_info@@6B@        0000000180029928     LIBCMT:std_type_info_static.obj
 0002:00009950       ??_R3type_info@@8          0000000180029950     LIBCMT:std_type_info_static.obj
 0002:00009968       ??_R2type_info@@8          0000000180029968     LIBCMT:std_type_info_static.obj
 0002:00009978       ??_R1A@?0A@EA@type_info@@8 0000000180029978     LIBCMT:std_type_info_static.obj
 0002:000099a0       ??_R4bad_array_new_length@std@@6B@ 00000001800299a0     LIBCMT:throw_bad_alloc.obj
 0002:000099c8       ??_R3bad_array_new_length@std@@8 00000001800299c8     LIBCMT:throw_bad_alloc.obj
 0002:000099e0       ??_R2bad_array_new_length@std@@8 00000001800299e0     LIBCMT:throw_bad_alloc.obj
 0002:00009a00       ??_R1A@?0A@EA@bad_array_new_length@std@@8 0000000180029a00     LIBCMT:throw_bad_alloc.obj
 0002:00009a28       ??_R4bad_exception@std@@6B@ 0000000180029a28     libvcruntime:frame.obj
 0002:00009a50       ??_R3bad_exception@std@@8  0000000180029a50     libvcruntime:frame.obj
 0002:00009a68       ??_R2bad_exception@std@@8  0000000180029a68     libvcruntime:frame.obj
 0002:00009a80       ??_R1A@?0A@EA@bad_exception@std@@8 0000000180029a80     libvcruntime:frame.obj
 0002:00009e70       __rtc_iaa                  0000000180029e70     LIBCMT:_initsect_.obj
 0002:00009e78       __rtc_izz                  0000000180029e78     LIBCMT:_initsect_.obj
 0002:00009e80       __rtc_taa                  0000000180029e80     LIBCMT:_initsect_.obj
 0002:00009e88       __rtc_tzz                  0000000180029e88     LIBCMT:_initsect_.obj
 0002:0000bd60       _TI2?AVbad_alloc@std@@     000000018002bd60     libcpmt:xthrow.obj
 0002:0000bd80       _CTA2?AVbad_alloc@std@@    000000018002bd80     libcpmt:xthrow.obj
 0002:0000bd98       _CT??_R0?AVbad_alloc@std@@@8??0bad_alloc@std@@QEAA@AEBV01@@Z24 000000018002bd98     libcpmt:xthrow.obj
 0002:0000bdc0       _CT??_R0?AVexception@std@@@8??0exception@std@@QEAA@AEBV01@@Z24 000000018002bdc0     libcpmt:xthrow.obj
 0002:0000bde8       _CT??_R0?AVlogic_error@std@@@8??0logic_error@std@@QEAA@AEBV01@@Z24 000000018002bde8     libcpmt:xthrow.obj
 0002:0000be10       _TI3?AVlength_error@std@@  000000018002be10     libcpmt:xthrow.obj
 0002:0000be30       _CTA3?AVlength_error@std@@ 000000018002be30     libcpmt:xthrow.obj
 0002:0000be50       _CT??_R0?AVlength_error@std@@@8??0length_error@std@@QEAA@AEBV01@@Z24 000000018002be50     libcpmt:xthrow.obj
 0002:0000be78       _TI3?AVbad_array_new_length@std@@ 000000018002be78     LIBCMT:throw_bad_alloc.obj
 0002:0000be98       _CTA3?AVbad_array_new_length@std@@ 000000018002be98     LIBCMT:throw_bad_alloc.obj
 0002:0000beb8       _CT??_R0?AVbad_array_new_length@std@@@8??0bad_array_new_length@std@@QEAA@AEBV01@@Z24 000000018002beb8     LIBCMT:throw_bad_alloc.obj
 0002:0000bee0       _TI2?AVbad_exception@std@@ 000000018002bee0     libvcruntime:frame.obj
 0002:0000bf00       _CTA2?AVbad_exception@std@@ 000000018002bf00     libvcruntime:frame.obj
 0002:0000bf18       _CT??_R0?AVbad_exception@std@@@8??0bad_exception@std@@QEAA@AEBV01@@Z24 000000018002bf18     libvcruntime:frame.obj
 0002:0000bf3c       __DELAY_IMPORT_DESCRIPTOR_node_exe 000000018002bf3c     node:node.exe
 0002:0000bf5c       __NULL_DELAY_IMPORT_DESCRIPTOR 000000018002bf5c     node:node.exe
 0002:0000c0d8       \177node_NULL_THUNK_DATA_DLN 000000018002c0d8     node:node.exe
 0002:0000cbf8       \177node_NULL_THUNK_DATA_DLB 000000018002cbf8     node:node.exe
 0002:0000cda0       __IMPORT_DESCRIPTOR_KERNEL32 000000018002cda0     kernel32:KERNEL32.dll
 0002:0000cdb4       __NULL_IMPORT_DESCRIPTOR   000000018002cdb4     kernel32:KERNEL32.dll
 0003:00000000       __scrt_native_dllmain_reason 000000018002e000     LIBCMT:utility.obj
 0003:00000008       __security_cookie          000000018002e008     LIBCMT:gs_cookie.obj
 0003:00000010       __security_cookie_complement 000000018002e010     LIBCMT:gs_cookie.obj
 0003:00000018       __isa_available            000000018002e018     LIBCMT:_cpu_disp_.obj
 0003:0000001c       __isa_enabled              000000018002e01c     LIBCMT:_cpu_disp_.obj
 0003:00000020       __memcpy_nt_iters          000000018002e020     LIBCMT:_cpu_disp_.obj
 0003:00000048       __abort_behavior           000000018002e048     libucrt:abort.obj
 0003:00000050       _iob                       000000018002e050     libucrt:_file.obj
 0003:00000170       __acrt_initial_locale_data 000000018002e170     libucrt:nlsdata.obj
 0003:000002c8       __acrt_initial_locale_pointers 000000018002e2c8     libucrt:nlsdata.obj
 0003:000002d8       __acrt_wide_c_locale_string 000000018002e2d8     libucrt:nlsdata.obj
 0003:000002e0       __badioinfo                000000018002e2e0     libucrt:ioinit.obj
 0003:00000420       __acrt_initial_multibyte_data 000000018002e420     libucrt:mbctype.obj
 0003:00000860       _pwctype                   000000018002e860     libucrt:ctype.obj
 0003:00000868       __globallocalestatus       000000018002e868     libucrt:glstatus.obj
 0003:00000870       __acrt_lconv_c             000000018002e870     libucrt:localeconv.obj
 0003:00000908       __acrt_lconv_static_decimal 000000018002e908     libucrt:localeconv.obj
 0003:0000090c       __acrt_lconv_static_W_decimal 000000018002e90c     libucrt:localeconv.obj
 0003:00000930       _fltused                   000000018002e930     LIBCMT:fltused.obj
 0003:00000940       insecure_memzero_ptr       000000018002e940     scrypt_lib:insecure_memzero.obj
 0003:00000a30       ??_R0?AVbad_alloc@std@@@8  000000018002ea30     libcpmt:xthrow.obj
 0003:00000a58       ??_R0?AVexception@std@@@8  000000018002ea58     libcpmt:xthrow.obj
 0003:00000a80       ??_R0?AVlogic_error@std@@@8 000000018002ea80     libcpmt:xthrow.obj
 0003:00000aa8       ??_R0?AVlength_error@std@@@8 000000018002eaa8     libcpmt:xthrow.obj
 0003:00000ad0       ??_R0?AVtype_info@@@8      000000018002ead0     LIBCMT:std_type_info_static.obj
 0003:00000af0       ??_R0?AVbad_array_new_length@std@@@8 000000018002eaf0     LIBCMT:throw_bad_alloc.obj
 0003:00000b20       ??_R0?AVbad_exception@std@@@8 000000018002eb20     libvcruntime:frame.obj
 0003:00000b48       __imp_?GetCurrent@Isolate@v8@@SAPEAV12@XZ 000000018002eb48     node:node.exe
 0003:00000b50       __imp_??1HandleScope@v8@@QEAA@XZ 000000018002eb50     node:node.exe
 0003:00000b58       __imp_?Error@Exception@v8@@SA?AV?$Local@VValue@v8@@@2@V?$Local@VString@v8@@@2@@Z 000000018002eb58     node:node.exe
 0003:00000b60       __imp_?ToLocalEmpty@V8@v8@@CAXXZ 000000018002eb60     node:node.exe
 0003:00000b68       __imp_?Escape@EscapableHandleScope@v8@@AEAAPEAPEAVObject@internal@2@PEAPEAV342@@Z 000000018002eb68     node:node.exe
 0003:00000b70       __imp_??0EscapableHandleScope@v8@@QEAA@PEAVIsolate@1@@Z 000000018002eb70     node:node.exe
 0003:00000b78       __imp_?NewFromUtf8@String@v8@@SA?AV?$MaybeLocal@VString@v8@@@2@PEAVIsolate@2@PEBDW4NewStringType@2@H@Z 000000018002eb78     node:node.exe
 0003:00000b80       __imp_??1EscapableHandleScope@v8@@QEAA@XZ 000000018002eb80     node:node.exe
 0003:00000b88       __imp_uv_queue_work        000000018002eb88     node:node.exe
 0003:00000b90       __imp_?Global@Context@v8@@QEAA?AV?$Local@VObject@v8@@@2@XZ 000000018002eb90     node:node.exe
 0003:00000b98       __imp_?NewFromUnsigned@Integer@v8@@SA?AV?$Local@VInteger@v8@@@2@PEAVIsolate@2@I@Z 000000018002eb98     node:node.exe
 0003:00000ba0       __imp_?New@Integer@v8@@SA?AV?$Local@VInteger@v8@@@2@PEAVIsolate@2@H@Z 000000018002eba0     node:node.exe
 0003:00000ba8       __imp_?GetCurrentContext@Isolate@v8@@QEAA?AV?$Local@VContext@v8@@@2@XZ 000000018002eba8     node:node.exe
 0003:00000bb0       __imp_?CreateHandle@HandleScope@v8@@KAPEAPEAVObject@internal@2@PEAVIsolate@42@PEAV342@@Z 000000018002ebb0     node:node.exe
 0003:00000bb8       __imp_??0HandleScope@v8@@QEAA@PEAVIsolate@1@@Z 000000018002ebb8     node:node.exe
 0003:00000bc0       __imp_?DisposeGlobal@V8@v8@@CAXPEAPEAVObject@internal@2@@Z 000000018002ebc0     node:node.exe
 0003:00000bc8       __imp_?GlobalizeReference@V8@v8@@CAPEAPEAVObject@internal@2@PEAVIsolate@42@PEAPEAV342@@Z 000000018002ebc8     node:node.exe
 0003:00000bd0       __imp_?IntegerValue@Value@v8@@QEBA_JXZ 000000018002ebd0     node:node.exe
 0003:00000bd8       __imp_?NumberValue@Value@v8@@QEBANXZ 000000018002ebd8     node:node.exe
 0003:00000be0       __imp_?ToInteger@Value@v8@@QEBA?AV?$MaybeLocal@VInteger@v8@@@2@V?$Local@VContext@v8@@@2@@Z 000000018002ebe0     node:node.exe
 0003:00000be8       __imp_?New@Object@v8@@SA?AV?$Local@VObject@v8@@@2@PEAVIsolate@2@@Z 000000018002ebe8     node:node.exe
 0003:00000bf0       __imp_?Set@Object@v8@@QEAA_NV?$Local@VValue@v8@@@2@0@Z 000000018002ebf0     node:node.exe
 0003:00000bf8       __imp_?MakeCallback@node@@YA?AV?$Local@VValue@v8@@@v8@@PEAVIsolate@3@V?$Local@VObject@v8@@@3@V?$Local@VFunction@v8@@@3@HPEAV23@@Z 000000018002ebf8     node:node.exe
 0003:00000c00       __imp_uv_default_loop      000000018002ec00     node:node.exe
 0003:00000c08       __imp_?ThrowException@Isolate@v8@@QEAA?AV?$Local@VValue@v8@@@2@V32@@Z 000000018002ec08     node:node.exe
 0003:00000c10       __imp_?Uint32Value@Value@v8@@QEBAIXZ 000000018002ec10     node:node.exe
 0003:00000c18       __imp_?Get@Object@v8@@QEAA?AV?$Local@VValue@v8@@@2@V32@@Z 000000018002ec18     node:node.exe
 0003:00000c20       __imp_?New@Buffer@node@@YA?AV?$MaybeLocal@VObject@v8@@@v8@@PEAVIsolate@4@_K@Z 000000018002ec20     node:node.exe
 0003:00000c28       __imp_?Data@Buffer@node@@YAPEADV?$Local@VValue@v8@@@v8@@@Z 000000018002ec28     node:node.exe
 0003:00000c30       __imp_?Length@Buffer@node@@YA_KV?$Local@VValue@v8@@@v8@@@Z 000000018002ec30     node:node.exe
 0003:00000c38       __imp_?ToObject@Value@v8@@QEBA?AV?$Local@VObject@v8@@@2@XZ 000000018002ec38     node:node.exe
 0003:00000c40       __imp_?Value@External@v8@@QEBAPEAXXZ 000000018002ec40     node:node.exe
 0003:00000c48       __imp_?New@External@v8@@SA?AV?$Local@VExternal@v8@@@2@PEAVIsolate@2@PEAX@Z 000000018002ec48     node:node.exe
 0003:00000c50       __imp_?CreateHandle@HandleScope@v8@@CAPEAPEAVObject@internal@2@PEAVHeapObject@42@PEAV342@@Z 000000018002ec50     node:node.exe
 0003:00000c58       __imp_?GetFunction@FunctionTemplate@v8@@QEAA?AV?$MaybeLocal@VFunction@v8@@@2@V?$Local@VContext@v8@@@2@@Z 000000018002ec58     node:node.exe
 0003:00000c60       __imp_?New@FunctionTemplate@v8@@SA?AV?$Local@VFunctionTemplate@v8@@@2@PEAVIsolate@2@P6AXAEBV?$FunctionCallbackInfo@VValue@v8@@@2@@ZV?$Local@VValue@v8@@@2@V?$Local@VSignature@v8@@@2@HW4ConstructorBehavior@2@@Z 000000018002ec60     node:node.exe
 0003:00000c68       __imp_?SlowGetInternalField@Object@v8@@AEAA?AV?$Local@VValue@v8@@@2@H@Z 000000018002ec68     node:node.exe
 0003:00000c70       __imp_?SetInternalField@Object@v8@@QEAAXHV?$Local@VValue@v8@@@2@@Z 000000018002ec70     node:node.exe
 0003:00000c78       __imp_?Set@Object@v8@@QEAA?AV?$Maybe@_N@2@V?$Local@VContext@v8@@@2@V?$Local@VValue@v8@@@2@1@Z 000000018002ec78     node:node.exe
 0003:00000c80       __imp_?SetInternalFieldCount@ObjectTemplate@v8@@QEAAXH@Z 000000018002ec80     node:node.exe
 0003:00000c88       __imp_?NewInstance@ObjectTemplate@v8@@QEAA?AV?$MaybeLocal@VObject@v8@@@2@V?$Local@VContext@v8@@@2@@Z 000000018002ec88     node:node.exe
 0003:00000c90       __imp_?New@ObjectTemplate@v8@@SA?AV?$Local@VObjectTemplate@v8@@@2@PEAVIsolate@2@V?$Local@VFunctionTemplate@v8@@@2@@Z 000000018002ec90     node:node.exe
 0003:00000c98       __imp_node_module_register 000000018002ec98     node:node.exe
 0003:00000ca0       \177node_NULL_THUNK_DATA_DLA 000000018002eca0     node:node.exe
 0003:00000cb0       __hmod__node_exe           000000018002ecb0     node:node.exe
 0003:00000cc0       __scrt_current_native_startup_state 000000018002ecc0     LIBCMT:utility.obj
 0003:00000cc8       __scrt_native_startup_lock 000000018002ecc8     LIBCMT:utility.obj
 0003:00001280       ?__type_info_root_node@@3U__type_info_node@@A 000000018002f280     LIBCMT:tncleanup.obj
 0003:00001290       ?_OptionsStorage@?1??__local_stdio_scanf_options@@9@4_KA 000000018002f290     LIBCMT:default_local_stdio_options.obj
 0003:00001298       __scrt_debugger_hook_flag  000000018002f298     LIBCMT:utility_desktop.obj
 0003:0000129c       __favor                    000000018002f29c     LIBCMT:_cpu_disp_.obj
 0003:000012a0       ?__WinRTOutOfMemoryExceptionCallback@@3P6APEAXXZEA 000000018002f2a0     libvcruntime:ehhelpers.obj
 0003:00001328       __pPurecall                000000018002f328     libvcruntime:purevirt_data.obj
 0003:000013a0       ?m_pGetParameter@UnDecorator@@0P6APEADJ@ZEA 000000018002f3a0     libvcruntime:undname.obj
 0003:000013a8       ?m_CHPENameOffset@UnDecorator@@0KA 000000018002f3a8     libvcruntime:undname.obj
 0003:000013ac       ?m_recursionLevel@UnDecorator@@0KA 000000018002f3ac     libvcruntime:undname.obj
 0003:000013b0       ?pArgList@UnDecorator@@0PEAVReplicator@@EA 000000018002f3b0     libvcruntime:undname.obj
 0003:000013b8       ?pZNameList@UnDecorator@@0PEAVReplicator@@EA 000000018002f3b8     libvcruntime:undname.obj
 0003:000013c0       ?pTemplateArgList@UnDecorator@@0PEAVReplicator@@EA 000000018002f3c0     libvcruntime:undname.obj
 0003:000013c8       ?gName@UnDecorator@@0PEBDEB 000000018002f3c8     libvcruntime:undname.obj
 0003:000013d0       ?name@UnDecorator@@0PEBDEB 000000018002f3d0     libvcruntime:undname.obj
 0003:000013d8       ?disableFlags@UnDecorator@@0KA 000000018002f3d8     libvcruntime:undname.obj
 0003:000013dc       ?fExplicitTemplateParams@UnDecorator@@0_NA 000000018002f3dc     libvcruntime:undname.obj
 0003:000013dd       ?fGetTemplateArgumentList@UnDecorator@@0_NA 000000018002f3dd     libvcruntime:undname.obj
 0003:00001410       _nstream                   000000018002f410     libucrt:_file.obj
 0003:00001418       __piob                     000000018002f418     libucrt:_file.obj
 0003:00001420       _cflush                    000000018002f420     libucrt:_file.obj
 0003:00001440       ?c_exit_complete@?1???R<lambda_6e4b09c48022b2350581041d5f6b0c4c>@@QEBA@XZ@4_NA 000000018002f440     libucrt:exit.obj
 0003:00001558       _environ_table             000000018002f558     libucrt:environment_initialization.obj
 0003:00001560       _wenviron_table            000000018002f560     libucrt:environment_initialization.obj
 0003:00001568       __dcrt_initial_wide_environment 000000018002f568     libucrt:environment_initialization.obj
 0003:00001570       __dcrt_initial_narrow_environment 000000018002f570     libucrt:environment_initialization.obj
 0003:00001578       __acrt_atexit_table        000000018002f578     libucrt:onexit.obj
 0003:00001590       __acrt_at_quick_exit_table 000000018002f590     libucrt:onexit.obj
 0003:000015d0       __acrt_locale_changed_data 000000018002f5d0     libucrt:wsetlocale.obj
 0003:000015d8       __acrt_current_locale_data 000000018002f5d8     libucrt:nlsdata.obj
 0003:00001790       __pioinfo                  000000018002f790     libucrt:ioinit.obj
 0003:00001b90       _nhandle                   000000018002fb90     libucrt:ioinit.obj
 0003:00001ba8       __acrt_stdout_buffer       000000018002fba8     libucrt:_sftbuf.obj
 0003:00001bb0       __acrt_stderr_buffer       000000018002fbb0     libucrt:_sftbuf.obj
 0003:00001e00       __acrt_current_multibyte_data 000000018002fe00     libucrt:mbctype.obj
 0003:00001e08       _mbctype                   000000018002fe08     libucrt:mbctype.obj
 0003:00001e10       _mbcasemap                 000000018002fe10     libucrt:mbctype.obj
 0003:00001e20       __argc                     000000018002fe20     libucrt:argv_data.obj
 0003:00001e28       __argv                     000000018002fe28     libucrt:argv_data.obj
 0003:00001e30       __wargv                    000000018002fe30     libucrt:argv_data.obj
 0003:00001e38       _acmdln                    000000018002fe38     libucrt:argv_data.obj
 0003:00001e40       _wcmdln                    000000018002fe40     libucrt:argv_data.obj
 0003:00001e48       _pgmptr                    000000018002fe48     libucrt:argv_data.obj
 0003:00001e50       __acrt_heap                000000018002fe50     libucrt:heap_handle.obj
 0003:00001e64       __acrt_lconv_static_null   000000018002fe64     libucrt:localeconv.obj
 0003:00001e68       __acrt_lconv_static_W_null 000000018002fe68     libucrt:localeconv.obj
 0003:00001e78       __fma3_is_available        000000018002fe78     libucrt:fma3_available.obj
 0003:00001e7c       __use_fma3_lib             000000018002fe7c     libucrt:fma3_available.obj
 0003:00001e88       ?DloadKernel32@@3PEAUHINSTANCE__@@EA 000000018002fe88     DelayImp:delayhlp.obj
 0003:00001e90       ?DloadAcquireSRWLockExclusive@@3P6AXPEA_K@ZEA 000000018002fe90     DelayImp:delayhlp.obj
 0003:00001e98       ?DloadReleaseSRWLockExclusive@@3P6AXPEA_K@ZEA 000000018002fe98     DelayImp:delayhlp.obj
 0003:00001ea0       ?DloadSrwLock@@3_KA        000000018002fea0     DelayImp:delayhlp.obj
 0003:00001ea8       ?DloadSectionLockCount@@3KA 000000018002fea8     DelayImp:delayhlp.obj
 0003:00001eac       ?DloadSectionOldProtection@@3KA 000000018002feac     DelayImp:delayhlp.obj
 0003:00001eb0       ?DloadSectionCommitPermanent@@3KA 000000018002feb0     DelayImp:delayhlp.obj
 0003:00001ec8       __scrt_ucrt_dll_is_in_use  000000018002fec8     <common>
 0003:00001ed0       __dyn_tls_init_callback    000000018002fed0     <common>
 0003:00001ed8       ?_OptionsStorage@?1??__local_stdio_printf_options@@9@9 000000018002fed8     <common>

 entry point at        0001:00008088

 Static symbols

 0000:fffcc000       .debug$S                   0000000180000000     kernel32:KERNEL32.dll
 0000:fffcc000       .debug$S                   0000000180000000     node:node.exe
 0000:fffcc000       .debug$S                   0000000180000000     node:node.exe
 0000:fffcc000       .debug$S                   0000000180000000     node:node.exe
 0000:fffcc000       .debug$S                   0000000180000000     node:node.exe
 0000:fffcc000       .debug$S                   0000000180000000     kernel32:KERNEL32.dll
 0000:fffcc000       .debug$S                   0000000180000000     kernel32:KERNEL32.dll
 0000:fffcc000       .debug$S                   0000000180000000     kernel32:KERNEL32.dll
 0000:fffcc000       .debug$S                   0000000180000000     kernel32:KERNEL32.dll
 0000:fffcc000       .debug$S                   0000000180000000     node:node.exe
 0000:fffcc000       .debug$S                   0000000180000000     scrypt.exp
 0000:fffcc000       .debug$S                   0000000180000000     node:node.exe
 0000:fffcc000       .debug$S                   0000000180000000     node:node.exe
 0000:fffcc000       .debug$S                   0000000180000000     node:node.exe
 0000:fffcc000       .debug$S                   0000000180000000     node:node.exe
 0000:fffcc000       .debug$S                   0000000180000000     node:node.exe
 0000:fffcc000       .debug$S                   0000000180000000     node:node.exe
 0000:fffcc000       .debug$S                   0000000180000000     node:node.exe
 0000:fffcc000       .debug$S                   0000000180000000     kernel32:KERNEL32.dll
 0000:fffcc000       .debug$S                   0000000180000000     kernel32:KERNEL32.dll
 0000:fffcc000       .debug$S                   0000000180000000     kernel32:KERNEL32.dll
 0000:fffcc000       .debug$S                   0000000180000000     kernel32:KERNEL32.dll
 0000:fffcc000       .debug$S                   0000000180000000     kernel32:KERNEL32.dll
 0000:fffcc000       .debug$S                   0000000180000000     kernel32:KERNEL32.dll
 0000:fffcc000       .debug$S                   0000000180000000     kernel32:KERNEL32.dll
 0000:fffcc000       .debug$S                   0000000180000000     kernel32:KERNEL32.dll
 0000:fffcc000       .debug$S                   0000000180000000     kernel32:KERNEL32.dll
 0000:fffcc000       .debug$S                   0000000180000000     kernel32:KERNEL32.dll
 0000:fffcc000       .debug$S                   0000000180000000     kernel32:KERNEL32.dll
 0000:fffcc000       .debug$S                   0000000180000000     kernel32:KERNEL32.dll
 0000:fffcc000       .debug$S                   0000000180000000     kernel32:KERNEL32.dll
 0000:fffcc000       .debug$S                   0000000180000000     kernel32:KERNEL32.dll
 0000:fffcc000       .debug$S                   0000000180000000     kernel32:KERNEL32.dll
 0000:fffcc000       .debug$S                   0000000180000000     kernel32:KERNEL32.dll
 0000:fffcc000       .debug$S                   0000000180000000     kernel32:KERNEL32.dll
 0000:fffcc000       .debug$S                   0000000180000000     kernel32:KERNEL32.dll
 0000:fffcc000       .debug$S                   0000000180000000     kernel32:KERNEL32.dll
 0000:fffcc000       .debug$S                   0000000180000000     kernel32:KERNEL32.dll
 0000:fffcc000       .debug$S                   0000000180000000     kernel32:KERNEL32.dll
 0000:fffcc000       .debug$S                   0000000180000000     kernel32:KERNEL32.dll
 0000:fffcc000       .debug$S                   0000000180000000     kernel32:KERNEL32.dll
 0000:fffcc000       .debug$S                   0000000180000000     kernel32:KERNEL32.dll
 0000:fffcc000       .debug$S                   0000000180000000     kernel32:KERNEL32.dll
 0000:fffcc000       .debug$S                   0000000180000000     kernel32:KERNEL32.dll
 0000:fffcc000       .debug$S                   0000000180000000     kernel32:KERNEL32.dll
 0000:fffcc000       .debug$S                   0000000180000000     kernel32:KERNEL32.dll
 0000:fffcc000       .debug$S                   0000000180000000     kernel32:KERNEL32.dll
 0000:fffcc000       .debug$S                   0000000180000000     kernel32:KERNEL32.dll
 0000:fffcc000       .debug$S                   0000000180000000     kernel32:KERNEL32.dll
 0000:fffcc000       .debug$S                   0000000180000000     kernel32:KERNEL32.dll
 0000:fffcc000       .debug$S                   0000000180000000     kernel32:KERNEL32.dll
 0000:fffcc000       .debug$S                   0000000180000000     kernel32:KERNEL32.dll
 0000:fffcc000       .debug$S                   0000000180000000     kernel32:KERNEL32.dll
 0000:fffcc000       .debug$S                   0000000180000000     kernel32:KERNEL32.dll
 0000:fffcc000       .debug$S                   0000000180000000     kernel32:KERNEL32.dll
 0000:fffcc000       .debug$S                   0000000180000000     kernel32:KERNEL32.dll
 0000:fffcc000       .debug$S                   0000000180000000     node:node.exe
 0000:fffcc000       .debug$S                   0000000180000000     kernel32:KERNEL32.dll
 0000:fffcc000       .debug$S                   0000000180000000     node:node.exe
 0000:fffcc000       .debug$S                   0000000180000000     kernel32:KERNEL32.dll
 0000:fffcc000       .debug$S                   0000000180000000     kernel32:KERNEL32.dll
 0000:fffcc000       .debug$S                   0000000180000000     kernel32:KERNEL32.dll
 0000:fffcc000       .debug$S                   0000000180000000     kernel32:KERNEL32.dll
 0000:fffcc000       .debug$S                   0000000180000000     kernel32:KERNEL32.dll
 0000:fffcc000       .debug$S                   0000000180000000     kernel32:KERNEL32.dll
 0000:fffcc000       .debug$S                   0000000180000000     kernel32:KERNEL32.dll
 0000:fffcc000       .debug$S                   0000000180000000     kernel32:KERNEL32.dll
 0000:fffcc000       .debug$S                   0000000180000000     kernel32:KERNEL32.dll
 0000:fffcc000       .debug$S                   0000000180000000     kernel32:KERNEL32.dll
 0000:fffcc000       .debug$S                   0000000180000000     kernel32:KERNEL32.dll
 0000:fffcc000       .debug$S                   0000000180000000     kernel32:KERNEL32.dll
 0000:fffcc000       .debug$S                   0000000180000000     kernel32:KERNEL32.dll
 0000:fffcc000       .debug$S                   0000000180000000     kernel32:KERNEL32.dll
 0000:fffcc000       .debug$S                   0000000180000000     kernel32:KERNEL32.dll
 0000:fffcc000       .debug$S                   0000000180000000     kernel32:KERNEL32.dll
 0000:fffcc000       .debug$S                   0000000180000000     kernel32:KERNEL32.dll
 0000:fffcc000       .debug$S                   0000000180000000     kernel32:KERNEL32.dll
 0000:fffcc000       .debug$S                   0000000180000000     kernel32:KERNEL32.dll
 0000:fffcc000       .debug$S                   0000000180000000     kernel32:KERNEL32.dll
 0000:fffcc000       .debug$S                   0000000180000000     kernel32:KERNEL32.dll
 0000:fffcc000       .debug$S                   0000000180000000     kernel32:KERNEL32.dll
 0000:fffcc000       .debug$S                   0000000180000000     kernel32:KERNEL32.dll
 0000:fffcc000       .debug$S                   0000000180000000     kernel32:KERNEL32.dll
 0000:fffcc000       .debug$S                   0000000180000000     kernel32:KERNEL32.dll
 0000:fffcc000       .debug$S                   0000000180000000     kernel32:KERNEL32.dll
 0000:fffcc000       .debug$S                   0000000180000000     kernel32:KERNEL32.dll
 0000:fffcc000       .debug$S                   0000000180000000     kernel32:KERNEL32.dll
 0000:fffcc000       .debug$S                   0000000180000000     kernel32:KERNEL32.dll
 0000:fffcc000       .debug$S                   0000000180000000     kernel32:KERNEL32.dll
 0000:fffcc000       .debug$S                   0000000180000000     kernel32:KERNEL32.dll
 0000:fffcc000       .debug$S                   0000000180000000     kernel32:KERNEL32.dll
 0000:fffcc000       .debug$S                   0000000180000000     kernel32:KERNEL32.dll
 0000:fffcc000       .debug$S                   0000000180000000     kernel32:KERNEL32.dll
 0000:fffcc000       .debug$S                   0000000180000000     kernel32:KERNEL32.dll
 0000:fffcc000       .debug$S                   0000000180000000     kernel32:KERNEL32.dll
 0000:fffcc000       .debug$S                   0000000180000000     kernel32:KERNEL32.dll
 0000:fffcc000       .debug$S                   0000000180000000     kernel32:KERNEL32.dll
 0000:fffcc000       .debug$S                   0000000180000000     kernel32:KERNEL32.dll
 0000:fffcc000       .debug$S                   0000000180000000     kernel32:KERNEL32.dll
 0000:fffcc000       .debug$S                   0000000180000000     kernel32:KERNEL32.dll
 0000:fffcc000       .debug$S                   0000000180000000     kernel32:KERNEL32.dll
 0000:fffcc000       .debug$S                   0000000180000000     kernel32:KERNEL32.dll
 0000:fffcc000       .debug$S                   0000000180000000     node:node.exe
 0000:fffcc000       .debug$S                   0000000180000000     node:node.exe
 0000:fffcc000       .debug$S                   0000000180000000     node:node.exe
 0000:fffcc000       .debug$S                   0000000180000000     node:node.exe
 0000:fffcc000       .debug$S                   0000000180000000     node:node.exe
 0000:fffcc000       .debug$S                   0000000180000000     node:node.exe
 0000:fffcc000       .debug$S                   0000000180000000     node:node.exe
 0000:fffcc000       .debug$S                   0000000180000000     node:node.exe
 0000:fffcc000       .debug$S                   0000000180000000     node:node.exe
 0000:fffcc000       .debug$S                   0000000180000000     node:node.exe
 0000:fffcc000       .debug$S                   0000000180000000     node:node.exe
 0000:fffcc000       .debug$S                   0000000180000000     node:node.exe
 0000:fffcc000       .debug$S                   0000000180000000     node:node.exe
 0000:fffcc000       .debug$S                   0000000180000000     node:node.exe
 0000:fffcc000       .debug$S                   0000000180000000     node:node.exe
 0000:fffcc000       .debug$S                   0000000180000000     node:node.exe
 0000:fffcc000       .debug$S                   0000000180000000     node:node.exe
 0000:fffcc000       .debug$S                   0000000180000000     node:node.exe
 0000:fffcc000       .debug$S                   0000000180000000     node:node.exe
 0000:fffcc000       .debug$S                   0000000180000000     node:node.exe
 0000:fffcc000       .debug$S                   0000000180000000     node:node.exe
 0000:fffcc000       .debug$S                   0000000180000000     node:node.exe
 0000:fffcc000       .debug$S                   0000000180000000     node:node.exe
 0000:fffcc000       .debug$S                   0000000180000000     node:node.exe
 0000:fffcc000       .debug$S                   0000000180000000     node:node.exe
 0000:fffcc000       .debug$S                   0000000180000000     node:node.exe
 0000:fffcc000       .debug$S                   0000000180000000     node:node.exe
 0000:fffcc000       .debug$S                   0000000180000000     node:node.exe
 0000:fffcc000       .debug$S                   0000000180000000     node:node.exe
 0000:fffcc000       .debug$S                   0000000180000000     node:node.exe
 0000:fffcc000       .debug$S                   0000000180000000     node:node.exe
 0000:fffcc000       .debug$S                   0000000180000000     node:node.exe
 0000:fffcc000       .debug$S                   0000000180000000     node:node.exe
 0001:00000010       ?ScryptErrorDescr@?A0x85892d7a@@YAPEBDI@Z 0000000180001010 f   scrypt_common.obj
 0001:00000354       $LN321                     0000000180001354     scrypt_common.obj
 0001:00000650       ??$_Reallocate_grow_by@V<lambda_65e615be2a453ca0576c979606f46740>@@PEBD_K@?$basic_string@DU?$char_traits@D@std@@V?$allocator@D@2@@std@@QEAAAEAV01@_KV<lambda_65e615be2a453ca0576c979606f46740>@@PEBD_K@Z 0000000180001650 f   scrypt_common.obj
 0001:000007f0       ??$_Reallocate_grow_by@V<lambda_f3a66ab6a0570788f31503db83886f49>@@_KPEBD_K@?$basic_string@DU?$char_traits@D@std@@V?$allocator@D@2@@std@@QEAAAEAV01@_KV<lambda_f3a66ab6a0570788f31503db83886f49>@@_KPEBD2@Z 00000001800017f0 f   scrypt_common.obj
 0001:00002f50       ?FunctionCallbackWrapper@imp@Nan@@YAXAEBV?$FunctionCallbackInfo@VValue@v8@@@v8@@@Z 0000000180003f50 f   scrypt_node.obj
 0001:000037c0       _register_scrypt           00000001800047c0 f   scrypt_node.obj
 0001:00003970       ?load_exe_hook@@YAP6A_JXZIPEAUDelayLoadInfo@@@Z 0000000180004970 f   win_delay_load_hook.obj
 0001:00004240       be32dec_vect               0000000180005240 f   scrypt_lib:sha256.obj
 0001:00004480       SHA256_Transform           0000000180005480 f   scrypt_lib:sha256.obj
 0001:00005f30       SHA256_Pad                 0000000180006f30 f   scrypt_lib:sha256.obj
 0001:00006a40       _crypto_scrypt             0000000180007a40 f   scrypt_lib:crypto_scrypt.obj
 0001:00006e10       insecure_memzero_func      0000000180007e10 f   scrypt_lib:insecure_memzero.obj
 0001:00006f50       blkxor                     0000000180007f50 f   scrypt_lib:crypto_scrypt_smix.obj
 0001:00007030       salsa20_8                  0000000180008030 f   scrypt_lib:crypto_scrypt_smix.obj
 0001:00007370       blockmix_salsa8            0000000180008370 f   scrypt_lib:crypto_scrypt_smix.obj
 0001:00007cf0       $$000000                   0000000180008cf0     LIBCMT:_amdsecgs_.obj
 0001:00007d68       ?dllmain_crt_dispatch@@YAHQEAUHINSTANCE__@@KQEAX@Z 0000000180008d68 f   LIBCMT:dll_dllmain.obj
 0001:00007db8       ?dllmain_crt_process_attach@@YAHQEAUHINSTANCE__@@QEAX@Z 0000000180008db8 f   LIBCMT:dll_dllmain.obj
 0001:00007ed0       ?dllmain_crt_process_detach@@YAH_N@Z 0000000180008ed0 f   LIBCMT:dll_dllmain.obj
 0001:00007f54       ?dllmain_dispatch@@YAHQEAUHINSTANCE__@@KQEAX@Z 0000000180008f54 f   LIBCMT:dll_dllmain.obj
 0001:0000862c       capture_current_context    000000018000962c f   LIBCMT:gs_report.obj
 0001:0000869c       capture_previous_context   000000018000969c f   LIBCMT:gs_report.obj
 0001:000097f0       $$000000                   000000018000a7f0     libvcruntime:memset.obj
 0001:000098ec       MsetTab                    000000018000a8ec     libvcruntime:memset.obj
 0001:00009cd4       ?CatchIt@@YAXPEAUEHExceptionRecord@@PEA_KPEAU_CONTEXT@@PEAU_xDISPATCHER_CONTEXT@@PEBU_s_FuncInfo@@PEBU_s_HandlerType@@PEBU_s_CatchableType@@PEBU_s_TryBlockMapEntry@@H1EE@Z 000000018000acd4 f   libvcruntime:frame.obj
 0001:00009d98       ?ExFilterRethrow@@YAHPEAU_EXCEPTION_POINTERS@@PEAUEHExceptionRecord@@PEAH@Z 000000018000ad98 f   libvcruntime:frame.obj
 0001:00009e20       ?FindHandler@@YAXPEAUEHExceptionRecord@@PEA_KPEAU_CONTEXT@@PEAU_xDISPATCHER_CONTEXT@@PEBU_s_FuncInfo@@EH1@Z 000000018000ae20 f   libvcruntime:frame.obj
 0001:0000a2d0       ?FindHandlerForForeignException@@YAXPEAUEHExceptionRecord@@PEA_KPEAU_CONTEXT@@PEAU_xDISPATCHER_CONTEXT@@PEBU_s_FuncInfo@@HH1@Z 000000018000b2d0 f   libvcruntime:frame.obj
 0001:0000a528       ?IsInExceptionSpec@@YAEPEAUEHExceptionRecord@@PEBU_s_ESTypeList@@@Z 000000018000b528 f   libvcruntime:frame.obj
 0001:0000aff0       $$000000                   000000018000bff0     libvcruntime:_jmpuwind_.obj
 0001:0000b11c       ?try_get_function@@YAPEAXW4function_id@?A0x89697e75@@QEBDQEBW4module_id@2@2@Z 000000018000c11c f   libvcruntime:winapi_downlevel.obj
 0001:0000b500       $$000000                   000000018000c500     libvcruntime:handlers.obj
 0001:0000b550       $$000000                   000000018000c550     libvcruntime:memcpy.obj
 0001:0000b5f7       MoveSmall                  000000018000c5f7     libvcruntime:memcpy.obj
 0001:0000bcfc       ??$common_assert_to_message_box@_W@@YAXQEB_W0IQEAX@Z 000000018000ccfc f   libucrt:assert.obj
 0001:0000bdc0       ??$common_assert_to_message_box_build_string@_W@@YAXQEA_W_KQEB_W2IQEAX@Z 000000018000cdc0 f   libucrt:assert.obj
 0001:0000c584       ??$common_assert_to_stderr@_W@@YAXQEB_W0I@Z 000000018000d584 f   libucrt:assert.obj
 0001:0000c6f4       ?get_assert_format@@YAPEB_W_W@Z 000000018000d6f4 f   libucrt:assert.obj
 0001:0000ccf8       ??$?RV<lambda_0d412022a4b28cc8a401ea49574e8ae6>@@AEAV<lambda_a775ed57af18ba8e4d5dc780aa9068fe>@@V<lambda_975a71a6baa488a08f4e15f6b0339b9e>@@@?$__crt_seh_guarded_call@H@@QEAAH$$QEAV<lambda_0d412022a4b28cc8a401ea49574e8ae6>@@AEAV<lambda_a775ed57af18ba8e4d5dc780aa9068fe>@@$$QEAV<lambda_975a71a6baa488a08f4e15f6b0339b9e>@@@Z 000000018000dcf8 f   libucrt:output.obj
 0001:0000cd38       ??$?RV<lambda_a62c933ada0517137acf5807a1eeac1f>@@AEAV<lambda_a31071773b9a94e445cbd5d04ef99106>@@V<lambda_56065050dbf3ada7e59a83db45153de3>@@@?$__crt_seh_guarded_call@H@@QEAAH$$QEAV<lambda_a62c933ada0517137acf5807a1eeac1f>@@AEAV<lambda_a31071773b9a94e445cbd5d04ef99106>@@$$QEAV<lambda_56065050dbf3ada7e59a83db45153de3>@@@Z 000000018000dd38 f   libucrt:output.obj
 0001:0000cd78       ??$common_vsprintf@Vstandard_base@__crt_stdio_output@@_W@@YAH_KQEA_W0QEB_WQEAU__crt_locale_pointers@@QEAD@Z 000000018000dd78 f   libucrt:output.obj
 0001:0000d4e4       ??R<lambda_a31071773b9a94e445cbd5d04ef99106>@@QEBAHXZ 000000018000e4e4 f   libucrt:output.obj
 0001:0000d614       ??R<lambda_a775ed57af18ba8e4d5dc780aa9068fe>@@QEBAHXZ 000000018000e614 f   libucrt:output.obj
 0001:00010408       ??$?RV<lambda_d80eeec6fff315bfe5c115232f3240e3>@@AEAV<lambda_6e4b09c48022b2350581041d5f6b0c4c>@@V<lambda_2358e3775559c9db80273638284d5e45>@@@?$__crt_seh_guarded_call@X@@QEAAX$$QEAV<lambda_d80eeec6fff315bfe5c115232f3240e3>@@AEAV<lambda_6e4b09c48022b2350581041d5f6b0c4c>@@$$QEAV<lambda_2358e3775559c9db80273638284d5e45>@@@Z 0000000180011408 f   libucrt:exit.obj
 0001:00010440       ??R<lambda_6e4b09c48022b2350581041d5f6b0c4c>@@QEBA@XZ 0000000180011440 f   libucrt:exit.obj
 0001:00010518       ?atexit_exception_filter@@YAHK@Z 0000000180011518 f   libucrt:exit.obj
 0001:00010524       ?common_exit@@YAXHW4_crt_exit_cleanup_mode@@W4_crt_exit_return_mode@@@Z 0000000180011524 f   libucrt:exit.obj
 0001:000105e0       ?exit_or_terminate_process@@YAXI@Z 00000001800115e0 f   libucrt:exit.obj
 0001:0001062c       ?try_cor_exit_process@@YAXI@Z 000000018001162c f   libucrt:exit.obj
 0001:000106b4       ??$parse_command_line@D@@YAXPEADPEAPEAD0PEA_K2@Z 00000001800116b4 f   libucrt:argv_parsing.obj
 0001:00010a60       ??$common_initialize_environment_nolock@D@@YAHXZ 0000000180011a60 f   libucrt:environment_initialization.obj
 0001:00010acc       ??$create_environment@D@@YAQEAPEADQEAD@Z 0000000180011acc f   libucrt:environment_initialization.obj
 0001:00010bd4       ??$free_environment@_W@@YAXQEAPEA_W@Z 0000000180011bd4 f   libucrt:environment_initialization.obj
 0001:00010bd4       ??$free_environment@D@@YAXQEAPEAD@Z 0000000180011bd4 f   libucrt:environment_initialization.obj
 0001:00010c18       ??$uninitialize_environment_internal@D@@YAXAEAPEAPEAD@Z 0000000180011c18 f   libucrt:environment_initialization.obj
 0001:00010c34       ??$uninitialize_environment_internal@_W@@YAXAEAPEAPEA_W@Z 0000000180011c34 f   libucrt:environment_initialization.obj
 0001:00010c90       ??$?RV<lambda_7777bce6b2f8c936911f934f8298dc43>@@AEAV<lambda_f03950bc5685219e0bcd2087efbe011e>@@V<lambda_3883c3dff614d5e0c5f61bb1ac94921c>@@@?$__crt_seh_guarded_call@H@@QEAAH$$QEAV<lambda_7777bce6b2f8c936911f934f8298dc43>@@AEAV<lambda_f03950bc5685219e0bcd2087efbe011e>@@$$QEAV<lambda_3883c3dff614d5e0c5f61bb1ac94921c>@@@Z 0000000180011c90 f   libucrt:onexit.obj
 0001:00010ccc       ??R<lambda_f03950bc5685219e0bcd2087efbe011e>@@QEBAHXZ 0000000180011ccc f   libucrt:onexit.obj
 0001:00010e94       initialize_global_variables 0000000180011e94 f   libucrt:initialization.obj
 0001:00010ea8       initialize_c               0000000180011ea8 f   libucrt:initialization.obj
 0001:00010ecc       uninitialize_c             0000000180011ecc f   libucrt:initialization.obj
 0001:00010ecc       initialize_global_state_isolation 0000000180011ecc f   libucrt:initialization.obj
 0001:00010ecc       initialize_environment     0000000180011ecc f   libucrt:initialization.obj
 0001:00010ecc       report_memory_leaks        0000000180011ecc f   libucrt:initialization.obj
 0001:00010ecc       uninitialize_global_state_isolation 0000000180011ecc f   libucrt:initialization.obj
 0001:00010ed0       uninitialize_environment   0000000180011ed0 f   libucrt:initialization.obj
 0001:00010ee0       initialize_pointers        0000000180011ee0 f   libucrt:initialization.obj
 0001:00010f34       uninitialize_vcruntime     0000000180011f34 f   libucrt:initialization.obj
 0001:00010f3c       uninitialize_allocated_memory 0000000180011f3c f   libucrt:initialization.obj
 0001:00010f7c       uninitialize_allocated_io_buffers 0000000180011f7c f   libucrt:initialization.obj
 0001:00011b10       $$000000                   0000000180012b10     libucrt:strncmp.obj
 0001:00011c68       ?_mbstowcs_l_helper@@YA_KPEA_WPEBD_KPEAU__crt_locale_pointers@@@Z 0000000180012c68 f   libucrt:mbstowcs.obj
 0001:00011f78       ??$?RV<lambda_0ae27a3a962d80f24befdcbee591983d>@@AEAV<lambda_8d0ee55de4b1038c4002e0adecdf1839>@@V<lambda_dc504788e8f1664fe9b84e20bfb512f2>@@@?$__crt_seh_guarded_call@X@@QEAAX$$QEAV<lambda_0ae27a3a962d80f24befdcbee591983d>@@AEAV<lambda_8d0ee55de4b1038c4002e0adecdf1839>@@$$QEAV<lambda_dc504788e8f1664fe9b84e20bfb512f2>@@@Z 0000000180012f78 f   libucrt:per_thread_data.obj
 0001:00011fb8       ??$?RV<lambda_2d41944a1d46af3157314b8a01080d33>@@AEAV<lambda_8f455de75cd7d7f24b4096f044d8b9e6>@@V<lambda_aa500f224e6afead328df44964fe2772>@@@?$__crt_seh_guarded_call@X@@QEAAX$$QEAV<lambda_2d41944a1d46af3157314b8a01080d33>@@AEAV<lambda_8f455de75cd7d7f24b4096f044d8b9e6>@@$$QEAV<lambda_aa500f224e6afead328df44964fe2772>@@@Z 0000000180012fb8 f   libucrt:per_thread_data.obj
 0001:00011ff8       ??$?RV<lambda_aa87e3671a710a21b5dc78c0bdf72e11>@@AEAV<lambda_92619d2358a28f41a33ba319515a20b9>@@V<lambda_6992ecaafeb10aed2b74cb1fae11a551>@@@?$__crt_seh_guarded_call@X@@QEAAX$$QEAV<lambda_aa87e3671a710a21b5dc78c0bdf72e11>@@AEAV<lambda_92619d2358a28f41a33ba319515a20b9>@@$$QEAV<lambda_6992ecaafeb10aed2b74cb1fae11a551>@@@Z 0000000180012ff8 f   libucrt:per_thread_data.obj
 0001:00012040       ??$?RV<lambda_f2e299630e499de9f9a165e60fcd3db5>@@AEAV<lambda_2ae9d31cdba2644fcbeaf08da7c24588>@@V<lambda_40d01ff24d0e7b3814fdbdcee8eab3c7>@@@?$__crt_seh_guarded_call@X@@QEAAX$$QEAV<lambda_f2e299630e499de9f9a165e60fcd3db5>@@AEAV<lambda_2ae9d31cdba2644fcbeaf08da7c24588>@@$$QEAV<lambda_40d01ff24d0e7b3814fdbdcee8eab3c7>@@@Z 0000000180013040 f   libucrt:per_thread_data.obj
 0001:000120a0       ?construct_ptd_array@@YAXQEAU__acrt_ptd@@@Z 00000001800130a0 f   libucrt:per_thread_data.obj
 0001:00012170       ?destroy_fls@@YAXPEAX@Z    0000000180013170 f   libucrt:per_thread_data.obj
 0001:00012190       ?destroy_ptd_array@@YAXQEAU__acrt_ptd@@@Z 0000000180013190 f   libucrt:per_thread_data.obj
 0001:00012288       ?replace_current_thread_locale_nolock@@YAXQEAU__acrt_ptd@@QEAU__crt_locale_data@@@Z 0000000180013288 f   libucrt:per_thread_data.obj
 0001:000125c0       ??$common_xtox@K_W@@YAHKQEA_W_KI_N@Z 00000001800135c0 f   libucrt:xtoa.obj
 0001:00012684       ??$common_xtox_s@K_W@@YAHKQEA_W_KI_N@Z 0000000180013684 f   libucrt:xtoa.obj
 0001:00012a88       ??$?RV<lambda_842d9ff0dc9ef11c61343bbaebe7f885>@@AEAV<lambda_c5860995281e5c4ce005b3de8f5874ee>@@V<lambda_d90129c13df834fdcbf8d2b88dafcf2d>@@@?$__crt_seh_guarded_call@X@@QEAAX$$QEAV<lambda_842d9ff0dc9ef11c61343bbaebe7f885>@@AEAV<lambda_c5860995281e5c4ce005b3de8f5874ee>@@$$QEAV<lambda_d90129c13df834fdcbf8d2b88dafcf2d>@@@Z 0000000180013a88 f   libucrt:fflush.obj
 0001:00012b24       ??$?RV<lambda_886d6c58226a84441f68b9f2b8217b83>@@AEAV<lambda_ab61a845afdef5b7c387490eaf3616ee>@@V<lambda_f7f22ab5edc0698d5f6905b0d3f44752>@@@?$__crt_seh_guarded_call@X@@QEAAX$$QEAV<lambda_886d6c58226a84441f68b9f2b8217b83>@@AEAV<lambda_ab61a845afdef5b7c387490eaf3616ee>@@$$QEAV<lambda_f7f22ab5edc0698d5f6905b0d3f44752>@@@Z 0000000180013b24 f   libucrt:fflush.obj
 0001:00012c04       ??$?RV<lambda_c376a267cfb53b6959b3b692ec76b120>@@AEAV<lambda_9a32fed5bf61b6b509b2d3f6003082a1>@@V<lambda_572fbb9fa0ab338edf41edfd4b5fcc8d>@@@?$__crt_seh_guarded_call@H@@QEAAH$$QEAV<lambda_c376a267cfb53b6959b3b692ec76b120>@@AEAV<lambda_9a32fed5bf61b6b509b2d3f6003082a1>@@$$QEAV<lambda_572fbb9fa0ab338edf41edfd4b5fcc8d>@@@Z 0000000180013c04 f   libucrt:fflush.obj
 0001:00012c44       ?common_flush_all@@YAH_N@Z 0000000180013c44 f   libucrt:fflush.obj
 0001:00012ddc       ??$?RV<lambda_84ec643ea9557e2f7dc01bb0e9624395>@@AEAV<lambda_ca71763b3c0644891230e4f79ea54fa6>@@V<lambda_439a761618c59b0600e24586724d733b>@@@?$__crt_seh_guarded_call@H@@QEAAH$$QEAV<lambda_84ec643ea9557e2f7dc01bb0e9624395>@@AEAV<lambda_ca71763b3c0644891230e4f79ea54fa6>@@$$QEAV<lambda_439a761618c59b0600e24586724d733b>@@@Z 0000000180013ddc f   libucrt:setvbuf.obj
 0001:00012e1c       ??R<lambda_ca71763b3c0644891230e4f79ea54fa6>@@QEBAHXZ 0000000180013e1c f   libucrt:setvbuf.obj
 0001:00012fa8       ??$?RV<lambda_450d765d439847d4c735a33c368b5fc0>@@AEAV<lambda_44731a7d0e6d81c3e6aa82d741081786>@@V<lambda_601a2a7da3b7a96e9554ac7215c4b07c>@@@?$__crt_seh_guarded_call@P6AXH@Z@@QEAAP6AXH@Z$$QEAV<lambda_450d765d439847d4c735a33c368b5fc0>@@AEAV<lambda_44731a7d0e6d81c3e6aa82d741081786>@@$$QEAV<lambda_601a2a7da3b7a96e9554ac7215c4b07c>@@@Z 0000000180013fa8 f   libucrt:signal.obj
 0001:000132c0       ?internal_isupper_l@@YA_NHQEAU__crt_locale_pointers@@@Z 00000001800142c0 f   libucrt:tolower_toupper.obj
 0001:000134e4       ??$?RV<lambda_410d79af7f07d98d83a3f525b3859a53>@@AEAV<lambda_3e16ef9562a7dcce91392c22ab16ea36>@@V<lambda_38119f0e861e05405d8a144b9b982f0a>@@@?$__crt_seh_guarded_call@X@@QEAAX$$QEAV<lambda_410d79af7f07d98d83a3f525b3859a53>@@AEAV<lambda_3e16ef9562a7dcce91392c22ab16ea36>@@$$QEAV<lambda_38119f0e861e05405d8a144b9b982f0a>@@@Z 00000001800144e4 f   libucrt:wsetlocale.obj
 0001:000135f0       ?try_get_function@@YAPEAXW4function_id@?A0x391cf84c@@QEBDQEBW4module_id@2@2@Z 00000001800145f0 f   libucrt:winapi_thunks.obj
 0001:00013f1c       ?initialize_inherited_file_handles_nolock@@YAXXZ 0000000180014f1c f   libucrt:ioinit.obj
 0001:00014008       ?initialize_stdio_handles_nolock@@YAXXZ 0000000180015008 f   libucrt:ioinit.obj
 0001:00014894       ?fp_format_a@@YAHQEBNPEAD_KQEAD2H_NIQEAU__crt_locale_pointers@@@Z 0000000180015894 f   libucrt:cvt.obj
 0001:00014bfc       ?fp_format_e@@YAHQEBNQEAD_K12H_NIQEAU__crt_locale_pointers@@@Z 0000000180015bfc f   libucrt:cvt.obj
 0001:00014cd8       ?fp_format_e_internal@@YAHQEAD_KH_NIQEAU_strflt@@2QEAU__crt_locale_pointers@@@Z 0000000180015cd8 f   libucrt:cvt.obj
 0001:00014eac       ?fp_format_f_internal@@YAHQEAD_KHQEAU_strflt@@_NQEAU__crt_locale_pointers@@@Z 0000000180015eac f   libucrt:cvt.obj
 0001:00014ff0       ?fp_format_g@@YAHQEBNQEAD_K12H_NIQEAU__crt_locale_pointers@@@Z 0000000180015ff0 f   libucrt:cvt.obj
 0001:00015124       ?fp_format_nan_or_infinity@@YAHW4__acrt_fp_class@@_NPEAD_K1@Z 0000000180016124 f   libucrt:cvt.obj
 0001:0001597c       ?<lambda_invoker_cdecl>@<lambda_c2303d2482d7c3675ea2e24c4cfb6115>@@CAHPEBX0@Z 000000018001697c f   libucrt:argv_wildcards.obj
 0001:00015990       ??$common_expand_argv_wildcards@D@@YAHQEAPEADQEAPEAPEAD@Z 0000000180016990 f   libucrt:argv_wildcards.obj
 0001:00015b9c       ??$copy_and_add_argument_to_buffer@D@@YAHQEBD0_KAEAV?$argument_list@D@?A0x5f5c8891@@@Z 0000000180016b9c f   libucrt:argv_wildcards.obj
 0001:00015d38       ??$expand_argument_wildcards@D@@YAHQEAD0AEAV?$argument_list@D@?A0x5f5c8891@@@Z 0000000180016d38 f   libucrt:argv_wildcards.obj
 0001:00015eec       ??$?RV<lambda_efdfa57d1f175319df784efa44bb7b81>@@AEAV<lambda_5f0a4c1567f8adc6734073e5d1e1b35c>@@V<lambda_2e8a7d3640ea6ccb4c2413664c2db6fd>@@@?$__crt_seh_guarded_call@X@@QEAAX$$QEAV<lambda_efdfa57d1f175319df784efa44bb7b81>@@AEAV<lambda_5f0a4c1567f8adc6734073e5d1e1b35c>@@$$QEAV<lambda_2e8a7d3640ea6ccb4c2413664c2db6fd>@@@Z 0000000180016eec f   libucrt:mbctype.obj
 0001:000160a8       ?getSystemCP@@YAHH@Z       00000001800170a8 f   libucrt:mbctype.obj
 0001:00016128       ?setSBCS@@YAXPEAU__crt_multibyte_data@@@Z 0000000180017128 f   libucrt:mbctype.obj
 0001:000161b8       ?setSBUpLow@@YAXPEAU__crt_multibyte_data@@@Z 00000001800171b8 f   libucrt:mbctype.obj
 0001:0001639c       ?setmbcp_internal@@YAHH_NQEAU__acrt_ptd@@QEAPEAU__crt_multibyte_data@@@Z 000000018001739c f   libucrt:mbctype.obj
 0001:00016560       ?update_thread_multibyte_data_internal@@YAPEAU__crt_multibyte_data@@QEAU__acrt_ptd@@QEAPEAU1@@Z 0000000180017560 f   libucrt:mbctype.obj
 0001:0001694c       ?x_ismbbtype_l@@YAHPEAU__crt_locale_pointers@@IHH@Z 000000018001794c f   libucrt:ismbbyte.obj
 0001:00017590       ??$?RV<lambda_a37b2b86f63e897a80ea819b0eb08c01>@@AEAV<lambda_38ce7e780aa69e748d6df282ebc68efe>@@V<lambda_99fb1378e971ab6e7edea83e3a7a83a2>@@@?$__crt_seh_guarded_call@H@@QEAAH$$QEAV<lambda_a37b2b86f63e897a80ea819b0eb08c01>@@AEAV<lambda_38ce7e780aa69e748d6df282ebc68efe>@@$$QEAV<lambda_99fb1378e971ab6e7edea83e3a7a83a2>@@@Z 0000000180018590 f   libucrt:commit.obj
 0001:000176b0       ?write_double_translated_ansi_nolock@@YA?AUwrite_result@?A0x17268360@@HQEBDI@Z 00000001800186b0 f   libucrt:write.obj
 0001:000178c8       ?write_text_ansi_nolock@@YA?AUwrite_result@?A0x17268360@@HQEBDI@Z 00000001800188c8 f   libucrt:write.obj
 0001:000179cc       ?write_text_utf16le_nolock@@YA?AUwrite_result@?A0x17268360@@HQEBDI@Z 00000001800189cc f   libucrt:write.obj
 0001:00017ae8       ?write_text_utf8_nolock@@YA?AUwrite_result@?A0x17268360@@HQEBDI@Z 0000000180018ae8 f   libucrt:write.obj
 0001:00018024       ?__acrt_LCMapStringA_stat@@YAHPEAU__crt_locale_pointers@@PEB_WKPEBDHPEADHHH@Z 0000000180019024 f   libucrt:lcmapstringa.obj
 0001:0001854c       ?free_crt_array_internal@@YAXQEAPEBX_K@Z 000000018001954c f   libucrt:inittime.obj
 0001:00018838       ?GetTableIndexFromLocaleName@@YAHPEB_W@Z 0000000180019838 f   libucrt:lcidtoname_downlevel.obj
 0001:0001a598       memcpy_s                   000000018001b598 f   libucrt:cfout.obj
 0001:0001a620       ??$write_buffer_nolock@D@@YA_NDV__crt_stdio_stream@@@Z 000000018001b620 f   libucrt:_flsbuf.obj
 0001:0001a700       ??$write_buffer_nolock@_W@@YA_N_WV__crt_stdio_stream@@@Z 000000018001b700 f   libucrt:_flsbuf.obj
 0001:0001add0       fallbackMethod             000000018001bdd0 f   libucrt:strpbrk.obj
 0001:0001b194       $LN78                      000000018001c194     libucrt:strpbrk.obj
 0001:0001b1d0       $LN77                      000000018001c1d0     libucrt:strpbrk.obj
 0001:0001b210       $LN76                      000000018001c210     libucrt:strpbrk.obj
 0001:0001b698       ?initialize_multibyte@@YAHXZ 000000018001c698 f   libucrt:multibyte_initializer.obj
 0001:0001b954       ??$common_lseek@_J@@YA_JH_JH@Z 000000018001c954 f   libucrt:lseek.obj
 0001:0001ba44       ??$common_lseek_nolock@_J@@YA_JH_JH@Z 000000018001ca44 f   libucrt:lseek.obj
 0001:0001bb44       ??$?RV<lambda_751a882b2c74d4b022dec766aa51a29a>@@AEAV<lambda_628dfdc04ba53c8bfc02c9951375f3f5>@@V<lambda_f6c7be5f7998530c34de24c7437d6b54>@@@?$__crt_seh_guarded_call@H@@QEAAH$$QEAV<lambda_751a882b2c74d4b022dec766aa51a29a>@@AEAV<lambda_628dfdc04ba53c8bfc02c9951375f3f5>@@$$QEAV<lambda_f6c7be5f7998530c34de24c7437d6b54>@@@Z 000000018001cb44 f   libucrt:close.obj
 0001:0001bec0       $$000000                   000000018001cec0     libucrt:log10.obj
 0001:0001c4d4       ?_wcstombs_l_helper@@YA_KPEADPEB_W_KPEAU__crt_locale_pointers@@@Z 000000018001d4d4 f   libucrt:wcstombs.obj
 0001:0001cd08       _call_matherr              000000018001dd08 f   libucrt:libm_error.obj
 0001:0001cd70       _exception_enabled         000000018001dd70 f   libucrt:libm_error.obj
 0001:0001d000       _log_special_common        000000018001e000 f   libucrt:log_special.obj
 0001:0001d1c0       $$000000                   000000018001e1c0     libucrt:fpsr.obj
 0001:0001df80       $$000000                   000000018001ef80     LIBCMT:_chkstk_.obj
 0001:0001e070       $$000000                   000000018001f070     libvcruntime:memcmp.obj
 0001:0001e2a0       $$000000                   000000018001f2a0     LIBCMT:_guard_dispatch_.obj
 0001:0001e2c0       ?dtor$0@?0??ScryptErrorDescr@?A0x85892d7a@@YAPEBDI@Z@4HA 000000018001f2c0 f   scrypt_common.obj
 0001:0001e2d0       ?dtor$1@?0??ScryptErrorDescr@?A0x85892d7a@@YAPEBDI@Z@4HA 000000018001f2d0 f   scrypt_common.obj
 0001:0001e2e0       ?dtor$2@?0??ScryptErrorDescr@?A0x85892d7a@@YAPEBDI@Z@4HA 000000018001f2e0 f   scrypt_common.obj
 0001:0001e2f0       ?dtor$0@?0??ScryptError@NodeScrypt@@YA?AV?$Local@VValue@v8@@@v8@@I@Z@4HA 000000018001f2f0 f   scrypt_common.obj
 0001:0001e300       ?dtor$2@?0??ScryptError@NodeScrypt@@YA?AV?$Local@VValue@v8@@@v8@@I@Z@4HA 000000018001f300 f   scrypt_common.obj
 0001:0001e300       ?dtor$0@?0??HandleErrorCallback@AsyncWorker@Nan@@MEAAXXZ@4HA 000000018001f300 f   scrypt_params_async.obj
 0001:0001e300       ?dtor$0@?0??GetFromPersistent@AsyncWorker@Nan@@QEBA?AV?$Local@VValue@v8@@@v8@@PEBD@Z@4HA 000000018001f300 f   scrypt_kdf_async.obj
 0001:0001e300       ?dtor$0@?0??SaveToPersistent@AsyncWorker@Nan@@QEAAXPEBDAEBV?$Local@VValue@v8@@@v8@@@Z@4HA 000000018001f300 f   scrypt_kdf_async.obj
 0001:0001e300       ?dtor$0@?0??HandleOKCallback@ScryptKDFVerifyAsyncWorker@@UEAAXXZ@4HA 000000018001f300 f   scrypt_kdf-verify_async.obj
 0001:0001e310       ?dtor$12@?0??InitAll@@YAXV?$Local@VObject@v8@@@v8@@@Z@4HA 000000018001f310 f   scrypt_node.obj
 0001:0001e310       ?dtor$15@?0??InitAll@@YAXV?$Local@VObject@v8@@@v8@@@Z@4HA 000000018001f310 f   scrypt_node.obj
 0001:0001e310       ?dtor$18@?0??InitAll@@YAXV?$Local@VObject@v8@@@v8@@@Z@4HA 000000018001f310 f   scrypt_node.obj
 0001:0001e310       ?dtor$0@?0??InitAll@@YAXV?$Local@VObject@v8@@@v8@@@Z@4HA 000000018001f310 f   scrypt_node.obj
 0001:0001e310       ?dtor$21@?0??InitAll@@YAXV?$Local@VObject@v8@@@v8@@@Z@4HA 000000018001f310 f   scrypt_node.obj
 0001:0001e310       ?dtor$3@?0??InitAll@@YAXV?$Local@VObject@v8@@@v8@@@Z@4HA 000000018001f310 f   scrypt_node.obj
 0001:0001e310       ?dtor$6@?0??InitAll@@YAXV?$Local@VObject@v8@@@v8@@@Z@4HA 000000018001f310 f   scrypt_node.obj
 0001:0001e310       ?dtor$0@?0??Call@Callback@Nan@@QEBA?AV?$Local@VValue@v8@@@v8@@HQEAV34@@Z@4HA 000000018001f310 f   scrypt_params_async.obj
 0001:0001e310       ?dtor$9@?0??InitAll@@YAXV?$Local@VObject@v8@@@v8@@@Z@4HA 000000018001f310 f   scrypt_node.obj
 0001:0001e320       ?dtor$0@?0??WorkComplete@ScryptAsyncWorker@@UEAAXXZ@4HA 000000018001f320 f   scrypt_params_async.obj
 0001:0001e320       ?dtor$1@?0??Call@Callback@Nan@@QEBA?AV?$Local@VValue@v8@@@v8@@HQEAV34@@Z@4HA 000000018001f320 f   scrypt_params_async.obj
 0001:0001e330       ?dtor$0@?0??WorkComplete@AsyncWorker@Nan@@UEAAXXZ@4HA 000000018001f330 f   scrypt_params_async.obj
 0001:0001e330       ?dtor$2@?0???0ScryptAsyncWorker@@QEAA@PEAVCallback@Nan@@@Z@4HA 000000018001f330 f   scrypt_params_async.obj
 0001:0001e330       ?dtor$2@?0??WorkComplete@ScryptAsyncWorker@@UEAAXXZ@4HA 000000018001f330 f   scrypt_params_async.obj
 0001:0001e330       ?dtor$0@?0??HandleOKCallback@AsyncWorker@Nan@@MEAAXXZ@4HA 000000018001f330 f   scrypt_params_async.obj
 0001:0001e330       ?dtor$0@?0??HandleErrorCallback@ScryptAsyncWorker@@UEAAXXZ@4HA 000000018001f330 f   scrypt_params_async.obj
 0001:0001e340       ?dtor$1@?0???0ScryptAsyncWorker@@QEAA@PEAVCallback@Nan@@@Z@4HA 000000018001f340 f   scrypt_params_async.obj
 0001:0001e360       ?dtor$0@?0??HandleOKCallback@ScryptParamsAsyncWorker@@UEAAXXZ@4HA 000000018001f360 f   scrypt_params_async.obj
 0001:0001e370       ?dtor$2@?0??HandleOKCallback@ScryptParamsAsyncWorker@@UEAAXXZ@4HA 000000018001f370 f   scrypt_params_async.obj
 0001:0001e370       ?dtor$4@?0??HandleOKCallback@ScryptParamsAsyncWorker@@UEAAXXZ@4HA 000000018001f370 f   scrypt_params_async.obj
 0001:0001e370       ?dtor$6@?0??HandleOKCallback@ScryptParamsAsyncWorker@@UEAAXXZ@4HA 000000018001f370 f   scrypt_params_async.obj
 0001:0001e380       ?dtor$0@?0??params@@YAXAEBV?$FunctionCallbackInfo@VValue@v8@@@Nan@@@Z@4HA 000000018001f380 f   scrypt_params_async.obj
 0001:0001e3a0       ?dtor$1@?0??params@@YAXAEBV?$FunctionCallbackInfo@VValue@v8@@@Nan@@@Z@4HA 000000018001f3a0 f   scrypt_params_async.obj
 0001:0001e3c0       ?dtor$2@?0??params@@YAXAEBV?$FunctionCallbackInfo@VValue@v8@@@Nan@@@Z@4HA 000000018001f3c0 f   scrypt_params_async.obj
 0001:0001e3d0       ?dtor$0@?0??paramsSync@@YAXAEBV?$FunctionCallbackInfo@VValue@v8@@@Nan@@@Z@4HA 000000018001f3d0 f   scrypt_params_sync.obj
 0001:0001e3d0       ?dtor$4@?0??paramsSync@@YAXAEBV?$FunctionCallbackInfo@VValue@v8@@@Nan@@@Z@4HA 000000018001f3d0 f   scrypt_params_sync.obj
 0001:0001e3d0       ?dtor$2@?0??paramsSync@@YAXAEBV?$FunctionCallbackInfo@VValue@v8@@@Nan@@@Z@4HA 000000018001f3d0 f   scrypt_params_sync.obj
 0001:0001e3d0       ?dtor$1@?0???$New@VFunctionTemplate@v8@@@Nan@@YA?AV?$Local@VFunctionTemplate@v8@@@v8@@P6AXAEBV?$FunctionCallbackInfo@VValue@v8@@@0@@ZV?$Local@VValue@v8@@@2@@Z@4HA 000000018001f3d0 f   scrypt_node.obj
 0001:0001e3e0       ?dtor$0@?0???0ScryptKDFAsyncWorker@@QEAA@AEBV?$FunctionCallbackInfo@VValue@v8@@@Nan@@@Z@4HA 000000018001f3e0 f   scrypt_kdf_async.obj
 0001:0001e3e0       ?dtor$0@?0???0ScryptKDFVerifyAsyncWorker@@QEAA@AEBV?$FunctionCallbackInfo@VValue@v8@@@Nan@@@Z@4HA 000000018001f3e0 f   scrypt_kdf-verify_async.obj
 0001:0001e3e0       ?dtor$0@?0???0ScryptHashAsyncWorker@@QEAA@AEBV?$FunctionCallbackInfo@VValue@v8@@@Nan@@@Z@4HA 000000018001f3e0 f   scrypt_hash_async.obj
 0001:0001e400       ?dtor$1@?0???0ScryptHashAsyncWorker@@QEAA@AEBV?$FunctionCallbackInfo@VValue@v8@@@Nan@@@Z@4HA 000000018001f400 f   scrypt_hash_async.obj
 0001:0001e400       ?dtor$1@?0???0ScryptKDFAsyncWorker@@QEAA@AEBV?$FunctionCallbackInfo@VValue@v8@@@Nan@@@Z@4HA 000000018001f400 f   scrypt_kdf_async.obj
 0001:0001e400       ?dtor$1@?0???0ScryptKDFVerifyAsyncWorker@@QEAA@AEBV?$FunctionCallbackInfo@VValue@v8@@@Nan@@@Z@4HA 000000018001f400 f   scrypt_kdf-verify_async.obj
 0001:0001e410       ?dtor$0@?0??HandleOKCallback@ScryptHashAsyncWorker@@UEAAXXZ@4HA 000000018001f410 f   scrypt_hash_async.obj
 0001:0001e410       ?dtor$0@?0??HandleOKCallback@ScryptKDFAsyncWorker@@UEAAXXZ@4HA 000000018001f410 f   scrypt_kdf_async.obj
 0001:0001e420       ?dtor$0@?0??kdf@@YAXAEBV?$FunctionCallbackInfo@VValue@v8@@@Nan@@@Z@4HA 000000018001f420 f   scrypt_kdf_async.obj
 0001:0001e440       ?dtor$0@?0??kdfVerify@@YAXAEBV?$FunctionCallbackInfo@VValue@v8@@@Nan@@@Z@4HA 000000018001f440 f   scrypt_kdf-verify_async.obj
 0001:0001e460       ?dtor$0@?0??hash@@YAXAEBV?$FunctionCallbackInfo@VValue@v8@@@Nan@@@Z@4HA 000000018001f460 f   scrypt_hash_async.obj
 0001:0001e480       ?dtor$5@?0??InitAll@@YAXV?$Local@VObject@v8@@@v8@@@Z@4HA 000000018001f480 f   scrypt_node.obj
 0001:0001e480       ?dtor$2@?0??InitAll@@YAXV?$Local@VObject@v8@@@v8@@@Z@4HA 000000018001f480 f   scrypt_node.obj
 0001:0001e480       ?dtor$8@?0??InitAll@@YAXV?$Local@VObject@v8@@@v8@@@Z@4HA 000000018001f480 f   scrypt_node.obj
 0001:0001e480       ?dtor$17@?0??InitAll@@YAXV?$Local@VObject@v8@@@v8@@@Z@4HA 000000018001f480 f   scrypt_node.obj
 0001:0001e480       ?dtor$11@?0??InitAll@@YAXV?$Local@VObject@v8@@@v8@@@Z@4HA 000000018001f480 f   scrypt_node.obj
 0001:0001e480       ?dtor$14@?0??InitAll@@YAXV?$Local@VObject@v8@@@v8@@@Z@4HA 000000018001f480 f   scrypt_node.obj
 0001:0001e480       ?dtor$23@?0??InitAll@@YAXV?$Local@VObject@v8@@@v8@@@Z@4HA 000000018001f480 f   scrypt_node.obj
 0001:0001e480       ?dtor$20@?0??InitAll@@YAXV?$Local@VObject@v8@@@v8@@@Z@4HA 000000018001f480 f   scrypt_node.obj
 0001:0001e490       ?dtor$0@?0???$New@VFunctionTemplate@v8@@@Nan@@YA?AV?$Local@VFunctionTemplate@v8@@@v8@@P6AXAEBV?$FunctionCallbackInfo@VValue@v8@@@0@@ZV?$Local@VValue@v8@@@2@@Z@4HA 000000018001f490 f   scrypt_node.obj
 0001:0001e49e       ?fin$0@?0??dllmain_crt_process_attach@@YAHQEAUHINSTANCE__@@QEAX@Z@4HA 000000018001f49e f   LIBCMT:dll_dllmain.obj
 0001:0001e4b5       ?fin$0@?0??dllmain_crt_process_detach@@YAH_N@Z@4HA 000000018001f4b5 f   LIBCMT:dll_dllmain.obj
 0001:0001e4d1       ?filt$0@?0??dllmain_dispatch@@YAHQEAUHINSTANCE__@@KQEAX@Z@4HA 000000018001f4d1 f   LIBCMT:dll_dllmain.obj
 0001:0001e507       __scrt_is_nonwritable_in_current_image$filt$0 000000018001f507 f   LIBCMT:utility.obj
 0001:0001e51f       _CallSETranslator$filt$0   000000018001f51f f   libvcruntime:risctrnsctrl.obj
 0001:0001e5b0       __DestructExceptionObject$filt$0 000000018001f5b0 f   libvcruntime:ehhelpers.obj
 0001:0001e5c8       __CxxCallCatchBlock$filt$0 000000018001f5c8 f   libvcruntime:frame.obj
 0001:0001e5ed       __CxxCallCatchBlock$fin$1  000000018001f5ed f   libvcruntime:frame.obj
 0001:0001e665       __FrameUnwindToState$filt$0 000000018001f665 f   libvcruntime:frame.obj
 0001:0001e67b       __FrameUnwindToState$fin$1 000000018001f67b f   libvcruntime:frame.obj
 0001:0001e69e       ?fin$0@?0???$?RV<lambda_a62c933ada0517137acf5807a1eeac1f>@@AEAV<lambda_a31071773b9a94e445cbd5d04ef99106>@@V<lambda_56065050dbf3ada7e59a83db45153de3>@@@?$__crt_seh_guarded_call@H@@QEAAH$$QEAV<lambda_a62c933ada0517137acf5807a1eeac1f>@@AEAV<lambda_a31071773b9a94e445cbd5d04ef99106>@@$$QEAV<lambda_56065050dbf3ada7e59a83db45153de3>@@@Z@4HA 000000018001f69e f   libucrt:output.obj
 0001:0001e69e       ?fin$0@?0???$?RV<lambda_842d9ff0dc9ef11c61343bbaebe7f885>@@AEAV<lambda_c5860995281e5c4ce005b3de8f5874ee>@@V<lambda_d90129c13df834fdcbf8d2b88dafcf2d>@@@?$__crt_seh_guarded_call@X@@QEAAX$$QEAV<lambda_842d9ff0dc9ef11c61343bbaebe7f885>@@AEAV<lambda_c5860995281e5c4ce005b3de8f5874ee>@@$$QEAV<lambda_d90129c13df834fdcbf8d2b88dafcf2d>@@@Z@4HA 000000018001f69e f   libucrt:fflush.obj
 0001:0001e69e       ?fin$0@?0???$?RV<lambda_c376a267cfb53b6959b3b692ec76b120>@@AEAV<lambda_9a32fed5bf61b6b509b2d3f6003082a1>@@V<lambda_572fbb9fa0ab338edf41edfd4b5fcc8d>@@@?$__crt_seh_guarded_call@H@@QEAAH$$QEAV<lambda_c376a267cfb53b6959b3b692ec76b120>@@AEAV<lambda_9a32fed5bf61b6b509b2d3f6003082a1>@@$$QEAV<lambda_572fbb9fa0ab338edf41edfd4b5fcc8d>@@@Z@4HA 000000018001f69e f   libucrt:fflush.obj
 0001:0001e69e       ?fin$0@?0???$?RV<lambda_0d412022a4b28cc8a401ea49574e8ae6>@@AEAV<lambda_a775ed57af18ba8e4d5dc780aa9068fe>@@V<lambda_975a71a6baa488a08f4e15f6b0339b9e>@@@?$__crt_seh_guarded_call@H@@QEAAH$$QEAV<lambda_0d412022a4b28cc8a401ea49574e8ae6>@@AEAV<lambda_a775ed57af18ba8e4d5dc780aa9068fe>@@$$QEAV<lambda_975a71a6baa488a08f4e15f6b0339b9e>@@@Z@4HA 000000018001f69e f   libucrt:output.obj
 0001:0001e69e       ?fin$0@?0???$?RV<lambda_84ec643ea9557e2f7dc01bb0e9624395>@@AEAV<lambda_ca71763b3c0644891230e4f79ea54fa6>@@V<lambda_439a761618c59b0600e24586724d733b>@@@?$__crt_seh_guarded_call@H@@QEAAH$$QEAV<lambda_84ec643ea9557e2f7dc01bb0e9624395>@@AEAV<lambda_ca71763b3c0644891230e4f79ea54fa6>@@$$QEAV<lambda_439a761618c59b0600e24586724d733b>@@@Z@4HA 000000018001f69e f   libucrt:setvbuf.obj
 0001:0001e6b9       _query_new_handler$fin$0   000000018001f6b9 f   libucrt:new_handler.obj
 0001:0001e6cf       ?fin$0@?0???$?RV<lambda_aa87e3671a710a21b5dc78c0bdf72e11>@@AEAV<lambda_92619d2358a28f41a33ba319515a20b9>@@V<lambda_6992ecaafeb10aed2b74cb1fae11a551>@@@?$__crt_seh_guarded_call@X@@QEAAX$$QEAV<lambda_aa87e3671a710a21b5dc78c0bdf72e11>@@AEAV<lambda_92619d2358a28f41a33ba319515a20b9>@@$$QEAV<lambda_6992ecaafeb10aed2b74cb1fae11a551>@@@Z@4HA 000000018001f6cf f   libucrt:per_thread_data.obj
 0001:0001e6cf       ?fin$0@?0???$?RV<lambda_2d41944a1d46af3157314b8a01080d33>@@AEAV<lambda_8f455de75cd7d7f24b4096f044d8b9e6>@@V<lambda_aa500f224e6afead328df44964fe2772>@@@?$__crt_seh_guarded_call@X@@QEAAX$$QEAV<lambda_2d41944a1d46af3157314b8a01080d33>@@AEAV<lambda_8f455de75cd7d7f24b4096f044d8b9e6>@@$$QEAV<lambda_aa500f224e6afead328df44964fe2772>@@@Z@4HA 000000018001f6cf f   libucrt:per_thread_data.obj
 0001:0001e6cf       ?fin$0@?0???$?RV<lambda_f2e299630e499de9f9a165e60fcd3db5>@@AEAV<lambda_2ae9d31cdba2644fcbeaf08da7c24588>@@V<lambda_40d01ff24d0e7b3814fdbdcee8eab3c7>@@@?$__crt_seh_guarded_call@X@@QEAAX$$QEAV<lambda_f2e299630e499de9f9a165e60fcd3db5>@@AEAV<lambda_2ae9d31cdba2644fcbeaf08da7c24588>@@$$QEAV<lambda_40d01ff24d0e7b3814fdbdcee8eab3c7>@@@Z@4HA 000000018001f6cf f   libucrt:per_thread_data.obj
 0001:0001e6cf       ?fin$0@?0???$?RV<lambda_0ae27a3a962d80f24befdcbee591983d>@@AEAV<lambda_8d0ee55de4b1038c4002e0adecdf1839>@@V<lambda_dc504788e8f1664fe9b84e20bfb512f2>@@@?$__crt_seh_guarded_call@X@@QEAAX$$QEAV<lambda_0ae27a3a962d80f24befdcbee591983d>@@AEAV<lambda_8d0ee55de4b1038c4002e0adecdf1839>@@$$QEAV<lambda_dc504788e8f1664fe9b84e20bfb512f2>@@@Z@4HA 000000018001f6cf f   libucrt:per_thread_data.obj
 0001:0001e6cf       ?fin$0@?0???$?RV<lambda_d80eeec6fff315bfe5c115232f3240e3>@@AEAV<lambda_6e4b09c48022b2350581041d5f6b0c4c>@@V<lambda_2358e3775559c9db80273638284d5e45>@@@?$__crt_seh_guarded_call@X@@QEAAX$$QEAV<lambda_d80eeec6fff315bfe5c115232f3240e3>@@AEAV<lambda_6e4b09c48022b2350581041d5f6b0c4c>@@$$QEAV<lambda_2358e3775559c9db80273638284d5e45>@@@Z@4HA 000000018001f6cf f   libucrt:exit.obj
 0001:0001e6cf       ?fin$0@?0???$?RV<lambda_7777bce6b2f8c936911f934f8298dc43>@@AEAV<lambda_f03950bc5685219e0bcd2087efbe011e>@@V<lambda_3883c3dff614d5e0c5f61bb1ac94921c>@@@?$__crt_seh_guarded_call@H@@QEAAH$$QEAV<lambda_7777bce6b2f8c936911f934f8298dc43>@@AEAV<lambda_f03950bc5685219e0bcd2087efbe011e>@@$$QEAV<lambda_3883c3dff614d5e0c5f61bb1ac94921c>@@@Z@4HA 000000018001f6cf f   libucrt:onexit.obj
 0001:0001e6cf       ?fin$0@?0???$?RV<lambda_450d765d439847d4c735a33c368b5fc0>@@AEAV<lambda_44731a7d0e6d81c3e6aa82d741081786>@@V<lambda_601a2a7da3b7a96e9554ac7215c4b07c>@@@?$__crt_seh_guarded_call@P6AXH@Z@@QEAAP6AXH@Z$$QEAV<lambda_450d765d439847d4c735a33c368b5fc0>@@AEAV<lambda_44731a7d0e6d81c3e6aa82d741081786>@@$$QEAV<lambda_601a2a7da3b7a96e9554ac7215c4b07c>@@@Z@4HA 000000018001f6cf f   libucrt:signal.obj
 0001:0001e6cf       ?fin$0@?0???$?RV<lambda_efdfa57d1f175319df784efa44bb7b81>@@AEAV<lambda_5f0a4c1567f8adc6734073e5d1e1b35c>@@V<lambda_2e8a7d3640ea6ccb4c2413664c2db6fd>@@@?$__crt_seh_guarded_call@X@@QEAAX$$QEAV<lambda_efdfa57d1f175319df784efa44bb7b81>@@AEAV<lambda_5f0a4c1567f8adc6734073e5d1e1b35c>@@$$QEAV<lambda_2e8a7d3640ea6ccb4c2413664c2db6fd>@@@Z@4HA 000000018001f6cf f   libucrt:mbctype.obj
 0001:0001e6e9       ?filt$0@?0???R<lambda_6e4b09c48022b2350581041d5f6b0c4c>@@QEBA@XZ@4HA 000000018001f6e9 f   libucrt:exit.obj
 0001:0001e704       ?fin$0@?0???$?RV<lambda_886d6c58226a84441f68b9f2b8217b83>@@AEAV<lambda_ab61a845afdef5b7c387490eaf3616ee>@@V<lambda_f7f22ab5edc0698d5f6905b0d3f44752>@@@?$__crt_seh_guarded_call@X@@QEAAX$$QEAV<lambda_886d6c58226a84441f68b9f2b8217b83>@@AEAV<lambda_ab61a845afdef5b7c387490eaf3616ee>@@$$QEAV<lambda_f7f22ab5edc0698d5f6905b0d3f44752>@@@Z@4HA 000000018001f704 f   libucrt:fflush.obj
 0001:0001e721       raise$fin$0                000000018001f721 f   libucrt:signal.obj
 0001:0001e742       ?fin$0@?0???$?RV<lambda_410d79af7f07d98d83a3f525b3859a53>@@AEAV<lambda_3e16ef9562a7dcce91392c22ab16ea36>@@V<lambda_38119f0e861e05405d8a144b9b982f0a>@@@?$__crt_seh_guarded_call@X@@QEAAX$$QEAV<lambda_410d79af7f07d98d83a3f525b3859a53>@@AEAV<lambda_3e16ef9562a7dcce91392c22ab16ea36>@@$$QEAV<lambda_38119f0e861e05405d8a144b9b982f0a>@@@Z@4HA 000000018001f742 f   libucrt:wsetlocale.obj
 0001:0001e75c       _fcloseall$fin$0           000000018001f75c f   libucrt:closeall.obj
 0001:0001e775       __acrt_lowio_ensure_fh_exists$fin$0 000000018001f775 f   libucrt:osfinfo.obj
 0001:0001e775       __acrt_initialize_lowio$fin$0 000000018001f775 f   libucrt:ioinit.obj
 0001:0001e78e       ?fin$0@?0??update_thread_multibyte_data_internal@@YAPEAU__crt_multibyte_data@@QEAU__acrt_ptd@@QEAPEAU1@@Z@4HA 000000018001f78e f   libucrt:mbctype.obj
 0001:0001e7a7       __acrt_update_thread_locale_data$fin$0 000000018001f7a7 f   libucrt:locale_refcounting.obj
 0001:0001e7c0       ?fin$0@?0???$?RV<lambda_a37b2b86f63e897a80ea819b0eb08c01>@@AEAV<lambda_38ce7e780aa69e748d6df282ebc68efe>@@V<lambda_99fb1378e971ab6e7edea83e3a7a83a2>@@@?$__crt_seh_guarded_call@H@@QEAAH$$QEAV<lambda_a37b2b86f63e897a80ea819b0eb08c01>@@AEAV<lambda_38ce7e780aa69e748d6df282ebc68efe>@@$$QEAV<lambda_99fb1378e971ab6e7edea83e3a7a83a2>@@@Z@4HA 000000018001f7c0 f   libucrt:commit.obj
 0001:0001e7c0       ?fin$0@?0???$?RV<lambda_751a882b2c74d4b022dec766aa51a29a>@@AEAV<lambda_628dfdc04ba53c8bfc02c9951375f3f5>@@V<lambda_f6c7be5f7998530c34de24c7437d6b54>@@@?$__crt_seh_guarded_call@H@@QEAAH$$QEAV<lambda_751a882b2c74d4b022dec766aa51a29a>@@AEAV<lambda_628dfdc04ba53c8bfc02c9951375f3f5>@@$$QEAV<lambda_f6c7be5f7998530c34de24c7437d6b54>@@@Z@4HA 000000018001f7c0 f   libucrt:close.obj
 0001:0001e7da       ?fin$0@?0???$common_lseek@_J@@YA_JH_JH@Z@4HA 000000018001f7da f   libucrt:lseek.obj
 0001:0001e7da       _write$fin$0               000000018001f7da f   libucrt:write.obj
 0001:0001e7f1       fclose$fin$0               000000018001f7f1 f   libucrt:fclose.obj
 0001:0001e809       ?dtor$0@?0??_wcstombs_l_helper@@YA_KPEADPEB_W_KPEAU__crt_locale_pointers@@@Z@4HA 000000018001f809 f   libucrt:wcstombs.obj
 0001:0001e815       _ctrlfp$filt$0             000000018001f815 f   libucrt:fpctrl.obj
 0001:0001e850       _IsNonwritableInCurrentImage$filt$0 000000018001f850 f   LIBCMT:pesect.obj
 0002:000003a0       GS_ExceptionPointers       00000001800203a0     LIBCMT:gs_report.obj
 0002:000003e0       ?ExceptionTemplate@?1??_UnwindNestedFrames@@9@4U_EXCEPTION_RECORD@@B 00000001800203e0     libvcruntime:risctrnsctrl.obj
 0002:00000480       ?ExceptionTemplate@?1??_CxxThrowException@@9@4UEHExceptionRecord@@B 0000000180020480     libvcruntime:throw.obj
 0002:000004e8       ?module_names@?A0x89697e75@@3QBQEB_WB 00000001800204e8     libvcruntime:winapi_downlevel.obj
 0002:000005b8       ?candidate_modules@?1??try_get_FlsAlloc@@YAP6AKP6AXPEAX@Z@ZXZ@4QBW4module_id@?A0x89697e75@@B 00000001800205b8     libvcruntime:winapi_downlevel.obj
 0002:000005d0       ?candidate_modules@?1??try_get_FlsFree@@YAP6AHK@ZXZ@4QBW4module_id@?A0x89697e75@@B 00000001800205d0     libvcruntime:winapi_downlevel.obj
 0002:000005e0       ?candidate_modules@?1??try_get_FlsGetValue@@YAP6APEAXK@ZXZ@4QBW4module_id@?A0x89697e75@@B 00000001800205e0     libvcruntime:winapi_downlevel.obj
 0002:000005f8       ?candidate_modules@?1??try_get_FlsSetValue@@YAP6AHKPEAX@ZXZ@4QBW4module_id@?A0x89697e75@@B 00000001800205f8     libvcruntime:winapi_downlevel.obj
 0002:00000610       ?candidate_modules@?1??try_get_InitializeCriticalSectionEx@@YAP6AHPEAU_RTL_CRITICAL_SECTION@@KK@ZXZ@4QBW4module_id@?A0x89697e75@@B 0000000180020610     libvcruntime:winapi_downlevel.obj
 0002:00000640       ?tokenTable@@3QBQEBDB      0000000180020640     libvcruntime:undname.obj
 0002:000006b8       ?rttiTable@@3QBQEBDB       00000001800206b8     libvcruntime:undname.obj
 0002:000006e0       ?nameTable@@3QBQEBDB       00000001800206e0     libvcruntime:undname.obj
 0002:00001310       ?errtable@@3QBUerrentry@?A0x31fdb9ec@@B 0000000180021310     libucrt:errno.obj
 0002:000015f0       __acrt_initializers        00000001800215f0     libucrt:initialization.obj
 0002:00002270       ?module_names@?A0x391cf84c@@3QBQEB_WB 0000000180022270     libucrt:winapi_thunks.obj
 0002:00002768       ?candidate_modules@?1??try_get_FlsAlloc@@YAP6AKP6AXPEAX@Z@ZXZ@4QBW4module_id@?A0x391cf84c@@B 0000000180022768     libucrt:winapi_thunks.obj
 0002:00002770       ?candidate_modules@?1??try_get_FlsFree@@YAP6AHK@ZXZ@4QBW4module_id@?A0x391cf84c@@B 0000000180022770     libucrt:winapi_thunks.obj
 0002:00002778       ?candidate_modules@?1??try_get_FlsGetValue@@YAP6APEAXK@ZXZ@4QBW4module_id@?A0x391cf84c@@B 0000000180022778     libucrt:winapi_thunks.obj
 0002:00002780       ?candidate_modules@?1??try_get_FlsSetValue@@YAP6AHKPEAX@ZXZ@4QBW4module_id@?A0x391cf84c@@B 0000000180022780     libucrt:winapi_thunks.obj
 0002:00002788       ?candidate_modules@?1??try_get_GetActiveWindow@@YAP6APEAUHWND__@@XZXZ@4QBW4module_id@?A0x391cf84c@@B 0000000180022788     libucrt:winapi_thunks.obj
 0002:000027a0       ?candidate_modules@?1??try_get_GetLastActivePopup@@YAP6APEAUHWND__@@PEAU2@@ZXZ@4QBW4module_id@?A0x391cf84c@@B 00000001800227a0     libucrt:winapi_thunks.obj
 0002:000027c0       ?candidate_modules@?1??try_get_GetProcessWindowStation@@YAP6APEAUHWINSTA__@@XZXZ@4QBW4module_id@?A0x391cf84c@@B 00000001800227c0     libucrt:winapi_thunks.obj
 0002:000027e0       ?candidate_modules@?1??try_get_GetUserObjectInformationW@@YAP6AHPEAXH0KPEAK@ZXZ@4QBW4module_id@?A0x391cf84c@@B 00000001800227e0     libucrt:winapi_thunks.obj
 0002:00002808       ?candidate_modules@?1??try_get_InitializeCriticalSectionEx@@YAP6AHPEAU_RTL_CRITICAL_SECTION@@KK@ZXZ@4QBW4module_id@?A0x391cf84c@@B 0000000180022808     libucrt:winapi_thunks.obj
 0002:00002810       ?candidate_modules@?1??try_get_LCMapStringEx@@YAP6AHPEB_WK0HPEA_WHPEAU_nlsversioninfo@@PEAX_J@ZXZ@4QBW4module_id@?A0x391cf84c@@B 0000000180022810     libucrt:winapi_thunks.obj
 0002:00002828       ?candidate_modules@?1??try_get_LocaleNameToLCID@@YAP6AKPEB_WK@ZXZ@4QBW4module_id@?A0x391cf84c@@B 0000000180022828     libucrt:winapi_thunks.obj
 0002:00002848       ?candidate_modules@?1??try_get_MessageBoxA@@YAP6AHPEAUHWND__@@PEBD1I@ZXZ@4QBW4module_id@?A0x391cf84c@@B 0000000180022848     libucrt:winapi_thunks.obj
 0002:00002860       ?candidate_modules@?1??try_get_MessageBoxW@@YAP6AHPEAUHWND__@@PEB_W1I@ZXZ@4QBW4module_id@?A0x391cf84c@@B 0000000180022860     libucrt:winapi_thunks.obj
 0002:00002874       ?candidate_modules@?1??try_get_AppPolicyGetProcessTerminationMethod@@YAP6AJPEAXPEAW4AppPolicyProcessTerminationMethod@@@ZXZ@4QBW4module_id@?A0x391cf84c@@B 0000000180022874     libucrt:winapi_thunks.obj
 0002:000028a0       ?candidate_modules@?1??try_get_AppPolicyGetShowDeveloperDiagnostic@@YAP6AJPEAXPEAW4AppPolicyShowDeveloperDiagnostic@@@ZXZ@4QBW4module_id@?A0x391cf84c@@B 00000001800228a0     libucrt:winapi_thunks.obj
 0002:000028cc       ?candidate_modules@?1??try_get_AppPolicyGetWindowingModel@@YAP6AJPEAXPEAW4AppPolicyWindowingModel@@@ZXZ@4QBW4module_id@?A0x391cf84c@@B 00000001800228cc     libucrt:winapi_thunks.obj
 0002:00002948       ?_mb_locale_names@@3QBQEB_WB 0000000180022948     libucrt:mbctype.obj
 0002:000031c0       ?LcidToLocaleNameTable@?A0x881e4c05@@3QBULcidToLocaleName@1@B 00000001800231c0     libucrt:lcidtoname_downlevel.obj
 0002:00004c20       ?LocaleNameToIndexTable@?A0x881e4c05@@3QBULocaleNameIndex@1@B 0000000180024c20     libucrt:lcidtoname_downlevel.obj
 0002:00006ec0       __real_ninf                0000000180026ec0     libucrt:log10.obj
 0002:00006ed0       __real_inf                 0000000180026ed0     libucrt:log10.obj
 0002:00006ee0       __real_neg_qnan            0000000180026ee0     libucrt:log10.obj
 0002:00006ef0       __real_qnanbit             0000000180026ef0     libucrt:log10.obj
 0002:00006f00       __int_1023                 0000000180026f00     libucrt:log10.obj
 0002:00006f10       __mask_001                 0000000180026f10     libucrt:log10.obj
 0002:00006f20       __mask_mant                0000000180026f20     libucrt:log10.obj
 0002:00006f30       __mask_mant_top8           0000000180026f30     libucrt:log10.obj
 0002:00006f40       __mask_mant9               0000000180026f40     libucrt:log10.obj
 0002:00006f50       __real_log10_e             0000000180026f50     libucrt:log10.obj
 0002:00006f60       __real_log10_e_lead        0000000180026f60     libucrt:log10.obj
 0002:00006f70       __real_log10_e_tail        0000000180026f70     libucrt:log10.obj
 0002:00006f80       __real_log10_2_lead        0000000180026f80     libucrt:log10.obj
 0002:00006f90       __real_log10_2_tail        0000000180026f90     libucrt:log10.obj
 0002:00006fa0       __real_two                 0000000180026fa0     libucrt:log10.obj
 0002:00006fb0       __real_one                 0000000180026fb0     libucrt:log10.obj
 0002:00006fc0       __real_half                0000000180026fc0     libucrt:log10.obj
 0002:00006fd0       __mask_100                 0000000180026fd0     libucrt:log10.obj
 0002:00006fe0       __real_1_over_512          0000000180026fe0     libucrt:log10.obj
 0002:00006ff0       __real_1_over_2            0000000180026ff0     libucrt:log10.obj
 0002:00007000       __real_1_over_3            0000000180027000     libucrt:log10.obj
 0002:00007010       __real_1_over_4            0000000180027010     libucrt:log10.obj
 0002:00007020       __real_1_over_5            0000000180027020     libucrt:log10.obj
 0002:00007030       __real_1_over_6            0000000180027030     libucrt:log10.obj
 0002:00007040       __real_neg_1023            0000000180027040     libucrt:log10.obj
 0002:00007050       __mask_2045                0000000180027050     libucrt:log10.obj
 0002:00007060       __real_threshold           0000000180027060     libucrt:log10.obj
 0002:00007070       __real_near_one_lt         0000000180027070     libucrt:log10.obj
 0002:00007080       __real_near_one_gt         0000000180027080     libucrt:log10.obj
 0002:00007090       __real_min_norm            0000000180027090     libucrt:log10.obj
 0002:000070a0       __real_notsign             00000001800270a0     libucrt:log10.obj
 0002:000070b0       __real_ca1                 00000001800270b0     libucrt:log10.obj
 0002:000070c0       __real_ca2                 00000001800270c0     libucrt:log10.obj
 0002:000070d0       __real_ca3                 00000001800270d0     libucrt:log10.obj
 0002:000070e0       __real_ca4                 00000001800270e0     libucrt:log10.obj
 0002:000070f0       __mask_lower               00000001800270f0     libucrt:log10.obj
 0002:00007100       __flag_x_zero              0000000180027100     libucrt:log10.obj
 0002:00007104       __flag_x_neg               0000000180027104     libucrt:log10.obj
 0002:00007108       __flag_x_nan               0000000180027108     libucrt:log10.obj
 0002:00007110       $cppxdata$?_wcstombs_l_helper@@YA_KPEADPEB_W_KPEAU__crt_locale_pointers@@@Z 0000000180027110     libucrt:wcstombs.obj
 0002:00008990       __real@433fffffffffffff    0000000180028990     libucrt:fpsr.obj
 0002:00008998       __real@c33fffffffffffff    0000000180028998     libucrt:fpsr.obj
 0002:00009088       initstate                  0000000180029088     scrypt_lib:sha256.obj
 0002:000090a8       epoch                      00000001800290a8     scrypt_lib:gettimeofday.obj
 0002:00009258       $cppxdata$?ScryptError@NodeScrypt@@YA?AV?$Local@VValue@v8@@@v8@@I@Z 0000000180029258     scrypt_common.obj
 0002:00009280       $cppxdata$?ScryptErrorDescr@?A0x85892d7a@@YAPEBDI@Z 0000000180029280     scrypt_common.obj
 0002:000092e8       $cppxdata$?params@@YAXAEBV?$FunctionCallbackInfo@VValue@v8@@@Nan@@@Z 00000001800292e8     scrypt_params_async.obj
 0002:00009310       $cppxdata$?HandleOKCallback@ScryptParamsAsyncWorker@@UEAAXXZ 0000000180029310     scrypt_params_async.obj
 0002:00009338       $cppxdata$?WorkComplete@ScryptAsyncWorker@@UEAAXXZ 0000000180029338     scrypt_params_async.obj
 0002:00009360       $cppxdata$?HandleErrorCallback@ScryptAsyncWorker@@UEAAXXZ 0000000180029360     scrypt_params_async.obj
 0002:00009388       $cppxdata$??0ScryptAsyncWorker@@QEAA@PEAVCallback@Nan@@@Z 0000000180029388     scrypt_params_async.obj
 0002:000093b0       $cppxdata$??1?$Persistent@VObject@v8@@V?$NonCopyablePersistentTraits@VObject@v8@@@2@@Nan@@QEAA@XZ 00000001800293b0     scrypt_params_async.obj
 0002:000093d8       $cppxdata$?HandleErrorCallback@AsyncWorker@Nan@@MEAAXXZ 00000001800293d8     scrypt_params_async.obj
 0002:00009400       $cppxdata$?HandleOKCallback@AsyncWorker@Nan@@MEAAXXZ 0000000180029400     scrypt_params_async.obj
 0002:00009428       $cppxdata$?WorkComplete@AsyncWorker@Nan@@UEAAXXZ 0000000180029428     scrypt_params_async.obj
 0002:00009450       $cppxdata$??1AsyncWorker@Nan@@UEAA@XZ 0000000180029450     scrypt_params_async.obj
 0002:00009478       $cppxdata$?Call@Callback@Nan@@QEBA?AV?$Local@VValue@v8@@@v8@@HQEAV34@@Z 0000000180029478     scrypt_params_async.obj
 0002:000094a0       $cppxdata$?paramsSync@@YAXAEBV?$FunctionCallbackInfo@VValue@v8@@@Nan@@@Z 00000001800294a0     scrypt_params_sync.obj
 0002:000094c8       $cppxdata$?kdf@@YAXAEBV?$FunctionCallbackInfo@VValue@v8@@@Nan@@@Z 00000001800294c8     scrypt_kdf_async.obj
 0002:000094f0       $cppxdata$?HandleOKCallback@ScryptKDFAsyncWorker@@UEAAXXZ 00000001800294f0     scrypt_kdf_async.obj
 0002:00009518       $cppxdata$??0ScryptKDFAsyncWorker@@QEAA@AEBV?$FunctionCallbackInfo@VValue@v8@@@Nan@@@Z 0000000180029518     scrypt_kdf_async.obj
 0002:00009540       $cppxdata$?GetFromPersistent@AsyncWorker@Nan@@QEBA?AV?$Local@VValue@v8@@@v8@@PEBD@Z 0000000180029540     scrypt_kdf_async.obj
 0002:00009568       $cppxdata$?SaveToPersistent@AsyncWorker@Nan@@QEAAXPEBDAEBV?$Local@VValue@v8@@@v8@@@Z 0000000180029568     scrypt_kdf_async.obj
 0002:00009590       $cppxdata$?kdfVerify@@YAXAEBV?$FunctionCallbackInfo@VValue@v8@@@Nan@@@Z 0000000180029590     scrypt_kdf-verify_async.obj
 0002:000095b8       $cppxdata$?HandleOKCallback@ScryptKDFVerifyAsyncWorker@@UEAAXXZ 00000001800295b8     scrypt_kdf-verify_async.obj
 0002:000095e0       $cppxdata$??0ScryptKDFVerifyAsyncWorker@@QEAA@AEBV?$FunctionCallbackInfo@VValue@v8@@@Nan@@@Z 00000001800295e0     scrypt_kdf-verify_async.obj
 0002:00009608       $cppxdata$?hash@@YAXAEBV?$FunctionCallbackInfo@VValue@v8@@@Nan@@@Z 0000000180029608     scrypt_hash_async.obj
 0002:00009630       $cppxdata$?HandleOKCallback@ScryptHashAsyncWorker@@UEAAXXZ 0000000180029630     scrypt_hash_async.obj
 0002:00009658       $cppxdata$??0ScryptHashAsyncWorker@@QEAA@AEBV?$FunctionCallbackInfo@VValue@v8@@@Nan@@@Z 0000000180029658     scrypt_hash_async.obj
 0002:00009680       $cppxdata$??$New@VFunctionTemplate@v8@@@Nan@@YA?AV?$Local@VFunctionTemplate@v8@@@v8@@P6AXAEBV?$FunctionCallbackInfo@VValue@v8@@@0@@ZV?$Local@VValue@v8@@@2@@Z 0000000180029680     scrypt_node.obj
 0002:000096a8       $cppxdata$?InitAll@@YAXV?$Local@VObject@v8@@@v8@@@Z 00000001800296a8     scrypt_node.obj
 0002:00009e90       $unwind$?ScryptErrorDescr@?A0x85892d7a@@YAPEBDI@Z 0000000180029e90     scrypt_common.obj
 0002:00009eb4       $stateUnwindMap$?ScryptErrorDescr@?A0x85892d7a@@YAPEBDI@Z 0000000180029eb4     scrypt_common.obj
 0002:00009ed0       $ip2state$?ScryptErrorDescr@?A0x85892d7a@@YAPEBDI@Z 0000000180029ed0     scrypt_common.obj
 0002:00009ef8       $unwind$?ScryptError@NodeScrypt@@YA?AV?$Local@VValue@v8@@@v8@@I@Z 0000000180029ef8     scrypt_common.obj
 0002:00009f0c       $stateUnwindMap$?ScryptError@NodeScrypt@@YA?AV?$Local@VValue@v8@@@v8@@I@Z 0000000180029f0c     scrypt_common.obj
 0002:00009f20       $ip2state$?ScryptError@NodeScrypt@@YA?AV?$Local@VValue@v8@@@v8@@I@Z 0000000180029f20     scrypt_common.obj
 0002:00009f48       $unwind$__acrt_freeptd     0000000180029f48     libucrt:per_thread_data.obj
 0002:00009f48       $unwind$_set_statfp        0000000180029f48     libucrt:fpctrl.obj
 0002:00009f48       $unwind$__acrt_update_multibyte_info 0000000180029f48     libucrt:locale_update.obj
 0002:00009f48       $unwind$??1?$basic_string@DU?$char_traits@D@std@@V?$allocator@D@2@@std@@QEAA@XZ 0000000180029f48     scrypt_common.obj
 0002:00009f48       $unwind$__acrt_update_locale_info 0000000180029f48     libucrt:locale_update.obj
 0002:00009f48       $unwind$?internal_isupper_l@@YA_NHQEAU__crt_locale_pointers@@@Z 0000000180029f48     libucrt:tolower_toupper.obj
 0002:00009f48       $unwind$??0bad_alloc@std@@QEAA@AEBV01@@Z 0000000180029f48     libcpmt:xthrow.obj
 0002:00009f48       $unwind$_callnewh          0000000180029f48     libucrt:new_handler.obj
 0002:00009f48       $unwind$??0exception@std@@QEAA@AEBV01@@Z 0000000180029f48     libcpmt:xthrow.obj
 0002:00009f48       $unwind$_clrfp             0000000180029f48     libucrt:fpctrl.obj
 0002:00009f48       $unwind$??0bad_exception@std@@QEAA@AEBV01@@Z 0000000180029f48     libvcruntime:frame.obj
 0002:00009f48       $unwind$fegetenv           0000000180029f48     libucrt:fegetenv.obj
 0002:00009f48       $unwind$__acrt_AppPolicyGetShowDeveloperDiagnosticInternal 0000000180029f48     libucrt:winapi_thunks.obj
 0002:00009f48       $unwind$fesetenv           0000000180029f48     libucrt:fesetenv.obj
 0002:00009f48       $unwind$feholdexcept       0000000180029f48     libucrt:feholdexcept.obj
 0002:00009f48       $unwind$__acrt_uninitialize_stdio 0000000180029f48     libucrt:_file.obj
 0002:00009f48       $unwind$__raise_securityfailure 0000000180029f48     LIBCMT:gs_report.obj
 0002:00009f48       $unwind$?DloadAcquireSectionWriteAccess@@YAXXZ 0000000180029f48     DelayImp:delayhlp.obj
 0002:00009f48       $unwind$_malloc_base       0000000180029f48     libucrt:malloc_base.obj
 0002:00009f48       $unwind$__scrt_uninitialize_crt 0000000180029f48     LIBCMT:utility.obj
 0002:00009f48       $unwind$??2@YAPEAX_K@Z     0000000180029f48     LIBCMT:new_scalar.obj
 0002:00009f48       $unwind$_IsExceptionObjectToBeDestroyed 0000000180029f48     libvcruntime:ehhelpers.obj
 0002:00009f48       $unwind$_SetImageBase      0000000180029f48     libvcruntime:risctrnsctrl.obj
 0002:00009f48       $unwind$??0bad_array_new_length@std@@QEAA@AEBV01@@Z 0000000180029f48     LIBCMT:throw_bad_alloc.obj
 0002:00009f48       $unwind$__scrt_release_startup_lock 0000000180029f48     LIBCMT:utility.obj
 0002:00009f48       $unwind$__std_exception_destroy 0000000180029f48     libvcruntime:std_exception.obj
 0002:00009f48       $unwind$initialize_pointers 0000000180029f48     libucrt:initialization.obj
 0002:00009f48       $unwind$__vcrt_initialize_locks 0000000180029f48     libvcruntime:locks.obj
 0002:00009f48       $unwind$__acrt_get_windowing_model_policy 0000000180029f48     libucrt:win_policies.obj
 0002:00009f48       $unwind$?load_exe_hook@@YAP6A_JXZIPEAUDelayLoadInfo@@@Z 0000000180029f48     win_delay_load_hook.obj
 0002:00009f48       $unwind$__acrt_get_developer_information_policy 0000000180029f48     libucrt:win_policies.obj
 0002:00009f48       $unwind$uninitialize_allocated_memory 0000000180029f48     libucrt:initialization.obj
 0002:00009f48       $unwind$__acrt_get_process_end_policy 0000000180029f48     libucrt:win_policies.obj
 0002:00009f48       $unwind$__scrt_initialize_crt 0000000180029f48     LIBCMT:utility.obj
 0002:00009f48       $unwind$__acrt_uninitialize_locks 0000000180029f48     libucrt:locks.obj
 0002:00009f48       $unwind$__vcrt_uninitialize_locks 0000000180029f48     libvcruntime:locks.obj
 0002:00009f48       $unwind$wcscat_s           0000000180029f48     libucrt:wcscat_s.obj
 0002:00009f48       $unwind$__acrt_getptd_head 0000000180029f48     libucrt:per_thread_data.obj
 0002:00009f48       $unwind$wcscpy_s           0000000180029f48     libucrt:wcscpy_s.obj
 0002:00009f48       $unwind$__acrt_initialize_locks 0000000180029f48     libucrt:locks.obj
 0002:00009f48       $unwind$_clearfp           0000000180029f48     libucrt:ieee.obj
 0002:00009f48       $unwind$__acrt_AppPolicyGetWindowingModelInternal 0000000180029f48     libucrt:winapi_thunks.obj
 0002:00009f48       $unwind$_calloc_base       0000000180029f48     libucrt:calloc_base.obj
 0002:00009f48       $unwind$__acrt_allocate_buffer_for_argv 0000000180029f48     libucrt:argv_parsing.obj
 0002:00009f48       $unwind$?__StateFromIp@@YAHPEBU_s_FuncInfo@@PEAU_xDISPATCHER_CONTEXT@@_K@Z 0000000180029f48     libvcruntime:riscehstate.obj
 0002:00009f48       $unwind$??0logic_error@std@@QEAA@AEBV01@@Z 0000000180029f48     libcpmt:xthrow.obj
 0002:00009f48       $unwind$_fflush_nolock     0000000180029f48     libucrt:fflush.obj
 0002:00009f48       $unwind$?state_case_normal@?$output_processor@DV?$stream_output_adapter@D@__crt_stdio_output@@V?$standard_base@DV?$stream_output_adapter@D@__crt_stdio_output@@@2@@__crt_stdio_output@@AEAA_NXZ 0000000180029f48     libucrt:output.obj
 0002:00009f48       $unwind$__acrt_uninitialize_winapi_thunks 0000000180029f48     libucrt:winapi_thunks.obj
 0002:00009f48       $unwind$_SetThrowImageBase 0000000180029f48     libvcruntime:risctrnsctrl.obj
 0002:00009f48       $unwind$__acrt_stdio_free_buffer_nolock 0000000180029f48     libucrt:_freebuf.obj
 0002:00009f48       $unwind$__vcrt_FlsGetValue 0000000180029f48     libvcruntime:winapi_downlevel.obj
 0002:00009f48       $unwind$__std_type_info_destroy_list 0000000180029f48     libvcruntime:std_type_info.obj
 0002:00009f48       $unwind$_CreateFrameInfo   0000000180029f48     libvcruntime:risctrnsctrl.obj
 0002:00009f48       $unwind$?exit_or_terminate_process@@YAXI@Z 0000000180029f48     libucrt:exit.obj
 0002:00009f48       $unwind$__acrt_FlsAlloc    0000000180029f48     libucrt:winapi_thunks.obj
 0002:00009f48       $unwind$__acrt_get_parent_window 0000000180029f48     libucrt:winapi_thunks.obj
 0002:00009f48       $unwind$__vcrt_freeptd     0000000180029f48     libvcruntime:per_thread_data.obj
 0002:00009f48       $unwind$?__GetUnwindTryBlock@@YAHPEA_KPEAU_xDISPATCHER_CONTEXT@@PEBU_s_FuncInfo@@@Z 0000000180029f48     libvcruntime:riscehstate.obj
 0002:00009f48       $unwind$__acrt_FlsFree     0000000180029f48     libucrt:winapi_thunks.obj
 0002:00009f48       $unwind$strcpy_s           0000000180029f48     libucrt:strcpy_s.obj
 0002:00009f48       $unwind$?type_case_s@?$output_processor@DV?$stream_output_adapter@D@__crt_stdio_output@@V?$standard_base@DV?$stream_output_adapter@D@__crt_stdio_output@@@2@@__crt_stdio_output@@AEAA_NXZ 0000000180029f48     libucrt:output.obj
 0002:00009f48       $unwind$__acrt_FlsGetValue 0000000180029f48     libucrt:winapi_thunks.obj
 0002:00009f48       $unwind$?__c16rtomb_utf8@__crt_mbstring@@YA_KPEAD_SPEAU_Mbstatet@@@Z 0000000180029f48     libucrt:c16rtomb.obj
 0002:00009f48       $unwind$?ExFilterRethrow@@YAHPEAU_EXCEPTION_POINTERS@@PEAUEHExceptionRecord@@PEAH@Z 0000000180029f48     libvcruntime:frame.obj
 0002:00009f48       $unwind$?try_cor_exit_process@@YAXI@Z 0000000180029f48     libucrt:exit.obj
 0002:00009f48       $unwind$??_Gtype_info@@UEAAPEAXI@Z 0000000180029f48     LIBCMT:std_type_info_static.obj
 0002:00009f48       $unwind$__vcrt_FlsAlloc    0000000180029f48     libvcruntime:winapi_downlevel.obj
 0002:00009f48       $unwind$?Execute@ScryptKDFVerifyAsyncWorker@@UEAAXXZ 0000000180029f48     scrypt_kdf-verify_async.obj
 0002:00009f48       $unwind$__acrt_AppPolicyGetProcessTerminationMethodInternal 0000000180029f48     libucrt:winapi_thunks.obj
 0002:00009f48       $unwind$__vcrt_FlsFree     0000000180029f48     libvcruntime:winapi_downlevel.obj
 0002:00009f48       $unwind$?AsyncExecuteComplete@Nan@@YAXPEAUuv_work_s@@@Z 0000000180029f48     scrypt_params_async.obj
 0002:00009f48       $unwind$??0length_error@std@@QEAA@AEBV01@@Z 0000000180029f48     libcpmt:xthrow.obj
 0002:00009f50       $unwind$??0?$basic_string@DU?$char_traits@D@std@@V?$allocator@D@2@@std@@QEAA@QEBD@Z 0000000180029f50     scrypt_common.obj
 0002:00009f68       $unwind$??$_Reallocate_grow_by@V<lambda_65e615be2a453ca0576c979606f46740>@@PEBD_K@?$basic_string@DU?$char_traits@D@std@@V?$allocator@D@2@@std@@QEAAAEAV01@_KV<lambda_65e615be2a453ca0576c979606f46740>@@PEBD_K@Z 0000000180029f68     scrypt_common.obj
 0002:00009f78       $chain$3$??$_Reallocate_grow_by@V<lambda_65e615be2a453ca0576c979606f46740>@@PEBD_K@?$basic_string@DU?$char_traits@D@std@@V?$allocator@D@2@@std@@QEAAAEAV01@_KV<lambda_65e615be2a453ca0576c979606f46740>@@PEBD_K@Z 0000000180029f78     scrypt_common.obj
 0002:00009f98       $chain$5$??$_Reallocate_grow_by@V<lambda_65e615be2a453ca0576c979606f46740>@@PEBD_K@?$basic_string@DU?$char_traits@D@std@@V?$allocator@D@2@@std@@QEAAAEAV01@_KV<lambda_65e615be2a453ca0576c979606f46740>@@PEBD_K@Z 0000000180029f98     scrypt_common.obj
 0002:00009fb8       $chain$6$??$_Reallocate_grow_by@V<lambda_65e615be2a453ca0576c979606f46740>@@PEBD_K@?$basic_string@DU?$char_traits@D@std@@V?$allocator@D@2@@std@@QEAAAEAV01@_KV<lambda_65e615be2a453ca0576c979606f46740>@@PEBD_K@Z 0000000180029fb8     scrypt_common.obj
 0002:00009fc8       $unwind$_invoke_watson     0000000180029fc8     libucrt:invalid_parameter.obj
 0002:00009fc8       $unwind$__scrt_dllmain_after_initialize_c 0000000180029fc8     LIBCMT:utility.obj
 0002:00009fc8       $unwind$__scrt_dllmain_crt_thread_attach 0000000180029fc8     LIBCMT:utility.obj
 0002:00009fc8       $unwind$__dcrt_terminate_console_output 0000000180029fc8     libucrt:initcon.obj
 0002:00009fc8       $unwind$?_Xlen@?$basic_string@DU?$char_traits@D@std@@V?$allocator@D@2@@std@@SAXXZ 0000000180029fc8     scrypt_common.obj
 0002:00009fc8       $unwind$__pctype_func      0000000180029fc8     libucrt:ctype.obj
 0002:00009fc8       $unwind$__dcrt_uninitialize_environments_nolock 0000000180029fc8     libucrt:environment_initialization.obj
 0002:00009fc8       $unwind$__scrt_dllmain_uninitialize_critical 0000000180029fc8     LIBCMT:utility.obj
 0002:00009fc8       $unwind$__acrt_release_locale_ref 0000000180029fc8     libucrt:locale_refcounting.obj
 0002:00009fc8       $unwind$??$uninitialize_environment_internal@D@@YAXAEAPEAPEAD@Z 0000000180029fc8     libucrt:environment_initialization.obj
 0002:00009fc8       $unwind$??$uninitialize_environment_internal@_W@@YAXAEAPEAPEA_W@Z 0000000180029fc8     libucrt:environment_initialization.obj
 0002:00009fc8       $unwind$?validate_stream_is_ansi_if_required@?$__acrt_stdio_char_traits@D@@SA_NQEAU_iobuf@@@Z 0000000180029fc8     libucrt:output.obj
 0002:00009fc8       $unwind$__acrt_thread_attach 0000000180029fc8     libucrt:initialization.obj
 0002:00009fc8       $unwind$_GetImageBase      0000000180029fc8     libvcruntime:risctrnsctrl.obj
 0002:00009fc8       $unwind$_purecall          0000000180029fc8     libvcruntime:purevirt.obj
 0002:00009fc8       $unwind$__scrt_dllmain_crt_thread_detach 0000000180029fc8     LIBCMT:utility.obj
 0002:00009fc8       $unwind$__scrt_dllmain_before_initialize_c 0000000180029fc8     LIBCMT:utility.obj
 0002:00009fc8       $unwind$__acrt_DownlevelLocaleNameToLCID 0000000180029fc8     libucrt:lcidtoname_downlevel.obj
 0002:00009fc8       $unwind$__acrt_uninitialize_critical 0000000180029fc8     libucrt:initialization.obj
 0002:00009fc8       $unwind$_set_errno_from_matherr 0000000180029fc8     libucrt:fpexcept.obj
 0002:00009fc8       $unwind$_set_error_mode    0000000180029fc8     libucrt:set_error_mode.obj
 0002:00009fc8       $unwind$__vcrt_initialize  0000000180029fc8     libvcruntime:initialization.obj
 0002:00009fc8       $unwind$__acrt_initialize_heap 0000000180029fc8     libucrt:heap_handle.obj
 0002:00009fc8       $unwind$__scrt_dllmain_uninitialize_c 0000000180029fc8     LIBCMT:utility.obj
 0002:00009fc8       $unwind$abort              0000000180029fc8     libucrt:abort.obj
 0002:00009fc8       $unwind$_GetThrowImageBase 0000000180029fc8     libvcruntime:risctrnsctrl.obj
 0002:00009fc8       $unwind$__vcrt_uninitialize 0000000180029fc8     libvcruntime:initialization.obj
 0002:00009fc8       $unwind$_get_osfhandle     0000000180029fc8     libucrt:osfinfo.obj
 0002:00009fc8       $unwind$__vcrt_uninitialize_critical 0000000180029fc8     libvcruntime:initialization.obj
 0002:00009fc8       $unwind$__acrt_initialize_command_line 0000000180029fc8     libucrt:argv_data.obj
 0002:00009fc8       $unwind$_fileno            0000000180029fc8     libucrt:fileno.obj
 0002:00009fc8       $unwind$uninitialize_allocated_io_buffers 0000000180029fc8     libucrt:initialization.obj
 0002:00009fc8       $unwind$?dllmain_crt_dispatch@@YAHQEAUHINSTANCE__@@KQEAX@Z 0000000180029fc8     LIBCMT:dll_dllmain.obj
 0002:00009fc8       $unwind$__scrt_initialize_default_local_stdio_options 0000000180029fc8     LIBCMT:default_local_stdio_options.obj
 0002:00009fc8       $unwind$__acrt_uninitialize_ptd 0000000180029fc8     libucrt:per_thread_data.obj
 0002:00009fc8       $unwind$?state_case_size@?$output_processor@DV?$stream_output_adapter@D@__crt_stdio_output@@V?$standard_base@DV?$stream_output_adapter@D@__crt_stdio_output@@@2@@__crt_stdio_output@@AEAA_NXZ 0000000180029fc8     libucrt:output.obj
 0002:00009fc8       $unwind$__GSHandlerCheck   0000000180029fc8     LIBCMT:_gshandler_.obj
 0002:00009fc8       $unwind$__vcrt_thread_attach 0000000180029fc8     libvcruntime:initialization.obj
 0002:00009fc8       $unwind$__doserrno         0000000180029fc8     libucrt:errno.obj
 0002:00009fc8       $unwind$tolower            0000000180029fc8     libucrt:tolower_toupper.obj
 0002:00009fc8       $unwind$?state_case_size@?$output_processor@_WV?$string_output_adapter@_W@__crt_stdio_output@@V?$standard_base@_WV?$string_output_adapter@_W@__crt_stdio_output@@@2@@__crt_stdio_output@@AEAA_NXZ 0000000180029fc8     libucrt:output.obj
 0002:00009fc8       $unwind$__vcrt_thread_detach 0000000180029fc8     libvcruntime:initialization.obj
 0002:00009fc8       $unwind$uninitialize_environment 0000000180029fc8     libucrt:initialization.obj
 0002:00009fc8       $unwind$_stricmp           0000000180029fc8     libucrt:stricmp.obj
 0002:00009fc8       $unwind$__scrt_acquire_startup_lock 0000000180029fc8     LIBCMT:utility.obj
 0002:00009fc8       $unwind$?state_case_size@?$output_processor@_WV?$stream_output_adapter@_W@__crt_stdio_output@@V?$standard_base@_WV?$stream_output_adapter@_W@__crt_stdio_output@@@2@@__crt_stdio_output@@AEAA_NXZ 0000000180029fc8     libucrt:output.obj
 0002:00009fc8       $unwind$_statfp            0000000180029fc8     libucrt:fpctrl.obj
 0002:00009fc8       $unwind$__acrt_update_thread_multibyte_data 0000000180029fc8     libucrt:mbctype.obj
 0002:00009fc8       $unwind$?__c32rtomb_utf8@__crt_mbstring@@YA_KPEAD_UPEAU_Mbstatet@@@Z 0000000180029fc8     libucrt:c32rtomb.obj
 0002:00009fc8       $unwind$__report_rangecheckfailure 0000000180029fc8     LIBCMT:gs_report.obj
 0002:00009fc8       $unwind$?DloadReleaseSectionWriteAccess@@YAXXZ 0000000180029fc8     DelayImp:delayhlp.obj
 0002:00009fc8       $unwind$__acrt_initialize_multibyte 0000000180029fc8     libucrt:mbctype.obj
 0002:00009fc8       $unwind$__acrt_thread_detach 0000000180029fc8     libucrt:initialization.obj
 0002:00009fc8       $unwind$_errno             0000000180029fc8     libucrt:errno.obj
 0002:00009fc8       $unwind$__std_terminate    0000000180029fc8     libvcruntime:ehhelpers.obj
 0002:00009fc8       $unwind$_msize_base        0000000180029fc8     libucrt:msize.obj
 0002:00009fc8       $unwind$__acrt_initialize_ptd 0000000180029fc8     libucrt:per_thread_data.obj
 0002:00009fc8       $unwind$?initialize_multibyte@@YAHXZ 0000000180029fc8     libucrt:multibyte_initializer.obj
 0002:00009fc8       $unwind$initialize_c       0000000180029fc8     libucrt:initialization.obj
 0002:00009fc8       $unwind$__FrameUnwindFilter 0000000180029fc8     libvcruntime:ehhelpers.obj
 0002:00009fc8       $unwind$__acrt_uninitialize 0000000180029fc8     libucrt:initialization.obj
 0002:00009fc8       $unwind$__vcrt_initialize_ptd 0000000180029fc8     libvcruntime:per_thread_data.obj
 0002:00009fc8       $unwind$__vcrt_uninitialize_ptd 0000000180029fc8     libvcruntime:per_thread_data.obj
 0002:00009fc8       $unwind$__vcrt_getptd      0000000180029fc8     libvcruntime:per_thread_data.obj
 0002:00009fc8       $unwind$_isatty            0000000180029fc8     libucrt:isatty.obj
 0002:00009fc8       $unwind$__vcrt_freefls     0000000180029fc8     libvcruntime:per_thread_data.obj
 0002:00009fc8       $unwind$?__GetCurrentState@@YAHPEA_KPEAU_xDISPATCHER_CONTEXT@@PEBU_s_FuncInfo@@@Z 0000000180029fc8     libvcruntime:riscehstate.obj
 0002:00009fd0       $unwind$??$_Reallocate_grow_by@V<lambda_f3a66ab6a0570788f31503db83886f49>@@_KPEBD_K@?$basic_string@DU?$char_traits@D@std@@V?$allocator@D@2@@std@@QEAAAEAV01@_KV<lambda_f3a66ab6a0570788f31503db83886f49>@@_KPEBD2@Z 0000000180029fd0     scrypt_common.obj
 0002:00009fdc       $chain$2$??$_Reallocate_grow_by@V<lambda_f3a66ab6a0570788f31503db83886f49>@@_KPEBD_K@?$basic_string@DU?$char_traits@D@std@@V?$allocator@D@2@@std@@QEAAAEAV01@_KV<lambda_f3a66ab6a0570788f31503db83886f49>@@_KPEBD2@Z 0000000180029fdc     scrypt_common.obj
 0002:00009ff8       $chain$4$??$_Reallocate_grow_by@V<lambda_f3a66ab6a0570788f31503db83886f49>@@_KPEBD_K@?$basic_string@DU?$char_traits@D@std@@V?$allocator@D@2@@std@@QEAAAEAV01@_KV<lambda_f3a66ab6a0570788f31503db83886f49>@@_KPEBD2@Z 0000000180029ff8     scrypt_common.obj
 0002:0000a014       $chain$5$??$_Reallocate_grow_by@V<lambda_f3a66ab6a0570788f31503db83886f49>@@_KPEBD_K@?$basic_string@DU?$char_traits@D@std@@V?$allocator@D@2@@std@@QEAAAEAV01@_KV<lambda_f3a66ab6a0570788f31503db83886f49>@@_KPEBD2@Z 000000018002a014     scrypt_common.obj
 0002:0000a024       $unwind$?Call@Callback@Nan@@QEBA?AV?$Local@VValue@v8@@@v8@@HQEAV34@@Z 000000018002a024     scrypt_params_async.obj
 0002:0000a040       $stateUnwindMap$?Call@Callback@Nan@@QEBA?AV?$Local@VValue@v8@@@v8@@HQEAV34@@Z 000000018002a040     scrypt_params_async.obj
 0002:0000a050       $ip2state$?Call@Callback@Nan@@QEBA?AV?$Local@VValue@v8@@@v8@@HQEAV34@@Z 000000018002a050     scrypt_params_async.obj
 0002:0000a078       $unwind$??1AsyncWorker@Nan@@UEAA@XZ 000000018002a078     scrypt_params_async.obj
 0002:0000a08c       $stateUnwindMap$??1AsyncWorker@Nan@@UEAA@XZ 000000018002a08c     scrypt_params_async.obj
 0002:0000a0a0       $ip2state$??1AsyncWorker@Nan@@UEAA@XZ 000000018002a0a0     scrypt_params_async.obj
 0002:0000a0b8       $unwind$?WorkComplete@AsyncWorker@Nan@@UEAAXXZ 000000018002a0b8     scrypt_params_async.obj
 0002:0000a0cc       $stateUnwindMap$?WorkComplete@AsyncWorker@Nan@@UEAAXXZ 000000018002a0cc     scrypt_params_async.obj
 0002:0000a0e8       $ip2state$?WorkComplete@AsyncWorker@Nan@@UEAAXXZ 000000018002a0e8     scrypt_params_async.obj
 0002:0000a108       $unwind$?HandleOKCallback@AsyncWorker@Nan@@MEAAXXZ 000000018002a108     scrypt_params_async.obj
 0002:0000a118       $stateUnwindMap$?HandleErrorCallback@ScryptAsyncWorker@@UEAAXXZ 000000018002a118     scrypt_params_async.obj
 0002:0000a118       $stateUnwindMap$?HandleOKCallback@AsyncWorker@Nan@@MEAAXXZ 000000018002a118     scrypt_params_async.obj
 0002:0000a120       $ip2state$?HandleOKCallback@AsyncWorker@Nan@@MEAAXXZ 000000018002a120     scrypt_params_async.obj
 0002:0000a138       $unwind$?HandleErrorCallback@AsyncWorker@Nan@@MEAAXXZ 000000018002a138     scrypt_params_async.obj
 0002:0000a14c       $stateUnwindMap$?HandleErrorCallback@AsyncWorker@Nan@@MEAAXXZ 000000018002a14c     scrypt_params_async.obj
 0002:0000a14c       $stateUnwindMap$?HandleOKCallback@ScryptKDFVerifyAsyncWorker@@UEAAXXZ 000000018002a14c     scrypt_kdf-verify_async.obj
 0002:0000a14c       $stateUnwindMap$?SaveToPersistent@AsyncWorker@Nan@@QEAAXPEBDAEBV?$Local@VValue@v8@@@v8@@@Z 000000018002a14c     scrypt_kdf_async.obj
 0002:0000a14c       $stateUnwindMap$?GetFromPersistent@AsyncWorker@Nan@@QEBA?AV?$Local@VValue@v8@@@v8@@PEBD@Z 000000018002a14c     scrypt_kdf_async.obj
 0002:0000a158       $ip2state$?HandleErrorCallback@AsyncWorker@Nan@@MEAAXXZ 000000018002a158     scrypt_params_async.obj
 0002:0000a170       $unwind$??_GScryptAsyncWorker@@UEAAPEAXI@Z 000000018002a170     scrypt_params_async.obj
 0002:0000a170       $unwind$__acrt_execute_uninitializers 000000018002a170     libucrt:shared_initialization.obj
 0002:0000a170       $unwind$?__SetUnwindTryBlock@@YAXPEA_KPEAU_xDISPATCHER_CONTEXT@@PEBU_s_FuncInfo@@H@Z 000000018002a170     libvcruntime:riscehstate.obj
 0002:0000a170       $unwind$??_GScryptParamsAsyncWorker@@UEAAPEAXI@Z 000000018002a170     scrypt_params_async.obj
 0002:0000a170       $unwind$??_Glogic_error@std@@UEAAPEAXI@Z 000000018002a170     libcpmt:xthrow.obj
 0002:0000a170       $unwind$?force_decimal_point@__crt_stdio_output@@YAXPEADQEAU__crt_locale_pointers@@@Z 000000018002a170     libucrt:output.obj
 0002:0000a170       $unwind$__acrt_FlsSetValue 000000018002a170     libucrt:winapi_thunks.obj
 0002:0000a170       $unwind$??_Gbad_array_new_length@std@@UEAAPEAXI@Z 000000018002a170     LIBCMT:throw_bad_alloc.obj
 0002:0000a170       $unwind$_realloc_base      000000018002a170     libucrt:realloc_base.obj
 0002:0000a170       $unwind$__acrt_getptd_noexit 000000018002a170     libucrt:per_thread_data.obj
 0002:0000a170       $unwind$__acrt_getptd      000000018002a170     libucrt:per_thread_data.obj
 0002:0000a170       $unwind$??_Glength_error@std@@UEAAPEAXI@Z 000000018002a170     libcpmt:xthrow.obj
 0002:0000a170       $unwind$??_GScryptHashAsyncWorker@@UEAAPEAXI@Z 000000018002a170     scrypt_hash_async.obj
 0002:0000a170       $unwind$?DloadGetSRWLockFunctionPointers@@YAEXZ 000000018002a170     DelayImp:delayhlp.obj
 0002:0000a170       $unwind$_RTC_Terminate     000000018002a170     LIBCMT:_initsect_.obj
 0002:0000a170       $unwind$??$common_initialize_environment_nolock@D@@YAHXZ 000000018002a170     libucrt:environment_initialization.obj
 0002:0000a170       $unwind$__acrt_uninitialize_lowio 000000018002a170     libucrt:ioinit.obj
 0002:0000a170       $unwind$wcsncat_s          000000018002a170     libucrt:wcsncat_s.obj
 0002:0000a170       $unwind$__acrt_can_show_message_box 000000018002a170     libucrt:winapi_thunks.obj
 0002:0000a170       $unwind$_FindAndUnlinkFrame 000000018002a170     libvcruntime:risctrnsctrl.obj
 0002:0000a170       $unwind$__acrt_stdio_allocate_buffer_nolock 000000018002a170     libucrt:_getbuf.obj
 0002:0000a170       $unwind$__acrt_fp_strflt_to_string 000000018002a170     libucrt:_fptostr.obj
 0002:0000a170       $unwind$__acrt_LocaleNameToLCID 000000018002a170     libucrt:winapi_thunks.obj
 0002:0000a170       $unwind$__acrt_errno_map_os_error 000000018002a170     libucrt:errno.obj
 0002:0000a170       $unwind$?type_case_c_tchar@?$output_processor@DV?$stream_output_adapter@D@__crt_stdio_output@@V?$standard_base@DV?$stream_output_adapter@D@__crt_stdio_output@@@2@@__crt_stdio_output@@AEAA_ND@Z 000000018002a170     libucrt:output.obj
 0002:0000a170       $unwind$_RTC_Initialize    000000018002a170     LIBCMT:_initsect_.obj
 0002:0000a170       $unwind$?replace_current_thread_locale_nolock@@YAXQEAU__acrt_ptd@@QEAU__crt_locale_data@@@Z 000000018002a170     libucrt:per_thread_data.obj
 0002:0000a170       $unwind$??_GScryptKDFVerifyAsyncWorker@@UEAAPEAXI@Z 000000018002a170     scrypt_kdf-verify_async.obj
 0002:0000a170       $unwind$??_Gexception@std@@UEAAPEAXI@Z 000000018002a170     libcpmt:xthrow.obj
 0002:0000a170       $unwind$_close_nolock      000000018002a170     libucrt:close.obj
 0002:0000a170       $unwind$??_Gbad_exception@std@@UEAAPEAXI@Z 000000018002a170     libvcruntime:frame.obj
 0002:0000a170       $unwind$??_GAsyncWorker@Nan@@UEAAPEAXI@Z 000000018002a170     scrypt_params_async.obj
 0002:0000a170       $unwind$libcperciva_SHA256_Final 000000018002a170     scrypt_lib:sha256.obj
 0002:0000a170       $unwind$strncpy_s          000000018002a170     libucrt:strncpy_s.obj
 0002:0000a170       $unwind$??_GScryptKDFAsyncWorker@@UEAAPEAXI@Z 000000018002a170     scrypt_kdf_async.obj
 0002:0000a170       $unwind$?state_case_normal_tchar@?$output_processor@DV?$stream_output_adapter@D@__crt_stdio_output@@V?$standard_base@DV?$stream_output_adapter@D@__crt_stdio_output@@@2@@__crt_stdio_output@@AEAA_ND@Z 000000018002a170     libucrt:output.obj
 0002:0000a170       $unwind$_fclose_nolock     000000018002a170     libucrt:fclose.obj
 0002:0000a170       $unwind$__vcrt_FlsSetValue 000000018002a170     libvcruntime:winapi_downlevel.obj
 0002:0000a170       $unwind$_initterm_e        000000018002a170     libucrt:initterm.obj
 0002:0000a170       $unwind$??_Gbad_alloc@std@@UEAAPEAXI@Z 000000018002a170     libcpmt:xthrow.obj
 0002:0000a170       $unwind$__acrt_stdio_begin_temporary_buffering_nolock 000000018002a170     libucrt:_sftbuf.obj
 0002:0000a170       $unwind$_updatetlocinfoEx_nolock 000000018002a170     libucrt:locale_refcounting.obj
 0002:0000a17c       $unwind$??1?$Persistent@VObject@v8@@V?$NonCopyablePersistentTraits@VObject@v8@@@2@@Nan@@QEAA@XZ 000000018002a17c     scrypt_params_async.obj
 0002:0000a18c       $stateUnwindMap$??1?$Persistent@VObject@v8@@V?$NonCopyablePersistentTraits@VObject@v8@@@2@@Nan@@QEAA@XZ 000000018002a18c     scrypt_params_async.obj
 0002:0000a194       $unwind$??0ScryptAsyncWorker@@QEAA@PEAVCallback@Nan@@@Z 000000018002a194     scrypt_params_async.obj
 0002:0000a1ac       $stateUnwindMap$??0ScryptAsyncWorker@@QEAA@PEAVCallback@Nan@@@Z 000000018002a1ac     scrypt_params_async.obj
 0002:0000a1c0       $ip2state$??0ScryptAsyncWorker@@QEAA@PEAVCallback@Nan@@@Z 000000018002a1c0     scrypt_params_async.obj
 0002:0000a1d8       $unwind$?HandleErrorCallback@ScryptAsyncWorker@@UEAAXXZ 000000018002a1d8     scrypt_params_async.obj
 0002:0000a1e8       $ip2state$?HandleErrorCallback@ScryptAsyncWorker@@UEAAXXZ 000000018002a1e8     scrypt_params_async.obj
 0002:0000a200       $unwind$?WorkComplete@ScryptAsyncWorker@@UEAAXXZ 000000018002a200     scrypt_params_async.obj
 0002:0000a214       $stateUnwindMap$?WorkComplete@ScryptAsyncWorker@@UEAAXXZ 000000018002a214     scrypt_params_async.obj
 0002:0000a238       $ip2state$?WorkComplete@ScryptAsyncWorker@@UEAAXXZ 000000018002a238     scrypt_params_async.obj
 0002:0000a260       $unwind$?__mbrtowc_utf8@__crt_mbstring@@YA_KPEA_WPEBD_KPEAU_Mbstatet@@@Z 000000018002a260     libucrt:mbrtowc.obj
 0002:0000a260       $unwind$?Execute@ScryptParamsAsyncWorker@@UEAAXXZ 000000018002a260     scrypt_params_async.obj
 0002:0000a260       $unwind$??$common_xtox_s@K_W@@YAHKQEA_W_KI_N@Z 000000018002a260     libucrt:xtoa.obj
 0002:0000a260       $unwind$??0length_error@std@@QEAA@PEBD@Z 000000018002a260     libcpmt:xthrow.obj
 0002:0000a268       $unwind$?HandleOKCallback@ScryptParamsAsyncWorker@@UEAAXXZ 000000018002a268     scrypt_params_async.obj
 0002:0000a280       $stateUnwindMap$?HandleOKCallback@ScryptParamsAsyncWorker@@UEAAXXZ 000000018002a280     scrypt_params_async.obj
 0002:0000a2a0       $ip2state$?HandleOKCallback@ScryptParamsAsyncWorker@@UEAAXXZ 000000018002a2a0     scrypt_params_async.obj
 0002:0000a2e8       $unwind$?params@@YAXAEBV?$FunctionCallbackInfo@VValue@v8@@@Nan@@@Z 000000018002a2e8     scrypt_params_async.obj
 0002:0000a300       $stateUnwindMap$?params@@YAXAEBV?$FunctionCallbackInfo@VValue@v8@@@Nan@@@Z 000000018002a300     scrypt_params_async.obj
 0002:0000a318       $ip2state$?params@@YAXAEBV?$FunctionCallbackInfo@VValue@v8@@@Nan@@@Z 000000018002a318     scrypt_params_async.obj
 0002:0000a348       $unwind$?dtor$0@?0???0ScryptKDFVerifyAsyncWorker@@QEAA@AEBV?$FunctionCallbackInfo@VValue@v8@@@Nan@@@Z@4HA 000000018002a348     scrypt_kdf-verify_async.obj
 0002:0000a348       $unwind$__acrt_lowio_ensure_fh_exists$fin$0 000000018002a348     libucrt:osfinfo.obj
 0002:0000a348       $unwind$fclose$fin$0       000000018002a348     libucrt:fclose.obj
 0002:0000a348       $unwind$?fin$0@?0??dllmain_crt_process_detach@@YAH_N@Z@4HA 000000018002a348     LIBCMT:dll_dllmain.obj
 0002:0000a348       $unwind$__acrt_initialize_lowio$fin$0 000000018002a348     libucrt:ioinit.obj
 0002:0000a348       $unwind$?dtor$0@?0??hash@@YAXAEBV?$FunctionCallbackInfo@VValue@v8@@@Nan@@@Z@4HA 000000018002a348     scrypt_hash_async.obj
 0002:0000a348       $unwind$?fin$0@?0??dllmain_crt_process_attach@@YAHQEAUHINSTANCE__@@QEAX@Z@4HA 000000018002a348     LIBCMT:dll_dllmain.obj
 0002:0000a348       $unwind$_fcloseall$fin$0   000000018002a348     libucrt:closeall.obj
 0002:0000a348       $unwind$?dtor$0@?0??params@@YAXAEBV?$FunctionCallbackInfo@VValue@v8@@@Nan@@@Z@4HA 000000018002a348     scrypt_params_async.obj
 0002:0000a348       $unwind$?dtor$1@?0??params@@YAXAEBV?$FunctionCallbackInfo@VValue@v8@@@Nan@@@Z@4HA 000000018002a348     scrypt_params_async.obj
 0002:0000a348       $unwind$__DestructExceptionObject$filt$0 000000018002a348     libvcruntime:ehhelpers.obj
 0002:0000a348       $unwind$?dtor$0@?0???0ScryptKDFAsyncWorker@@QEAA@AEBV?$FunctionCallbackInfo@VValue@v8@@@Nan@@@Z@4HA 000000018002a348     scrypt_kdf_async.obj
 0002:0000a348       $unwind$?fin$0@?0??update_thread_multibyte_data_internal@@YAPEAU__crt_multibyte_data@@QEAU__acrt_ptd@@QEAPEAU1@@Z@4HA 000000018002a348     libucrt:mbctype.obj
 0002:0000a348       $unwind$__FrameUnwindToState$fin$1 000000018002a348     libvcruntime:frame.obj
 0002:0000a348       $unwind$_write$fin$0       000000018002a348     libucrt:write.obj
 0002:0000a348       $unwind$__FrameUnwindToState$filt$0 000000018002a348     libvcruntime:frame.obj
 0002:0000a348       $unwind$?fin$0@?0???$?RV<lambda_410d79af7f07d98d83a3f525b3859a53>@@AEAV<lambda_3e16ef9562a7dcce91392c22ab16ea36>@@V<lambda_38119f0e861e05405d8a144b9b982f0a>@@@?$__crt_seh_guarded_call@X@@QEAAX$$QEAV<lambda_410d79af7f07d98d83a3f525b3859a53>@@AEAV<lambda_3e16ef9562a7dcce91392c22ab16ea36>@@$$QEAV<lambda_38119f0e861e05405d8a144b9b982f0a>@@@Z@4HA 000000018002a348     libucrt:wsetlocale.obj
 0002:0000a348       $unwind$?dtor$0@?0??kdfVerify@@YAXAEBV?$FunctionCallbackInfo@VValue@v8@@@Nan@@@Z@4HA 000000018002a348     scrypt_kdf-verify_async.obj
 0002:0000a348       $unwind$?fin$0@?0???$common_lseek@_J@@YA_JH_JH@Z@4HA 000000018002a348     libucrt:lseek.obj
 0002:0000a348       $unwind$_ctrlfp$filt$0     000000018002a348     libucrt:fpctrl.obj
 0002:0000a348       $unwind$?fin$0@?0???$?RV<lambda_a62c933ada0517137acf5807a1eeac1f>@@AEAV<lambda_a31071773b9a94e445cbd5d04ef99106>@@V<lambda_56065050dbf3ada7e59a83db45153de3>@@@?$__crt_seh_guarded_call@H@@QEAAH$$QEAV<lambda_a62c933ada0517137acf5807a1eeac1f>@@AEAV<lambda_a31071773b9a94e445cbd5d04ef99106>@@$$QEAV<lambda_56065050dbf3ada7e59a83db45153de3>@@@Z@4HA 000000018002a348     libucrt:output.obj
 0002:0000a348       $unwind$?fin$0@?0???$?RV<lambda_0d412022a4b28cc8a401ea49574e8ae6>@@AEAV<lambda_a775ed57af18ba8e4d5dc780aa9068fe>@@V<lambda_975a71a6baa488a08f4e15f6b0339b9e>@@@?$__crt_seh_guarded_call@H@@QEAAH$$QEAV<lambda_0d412022a4b28cc8a401ea49574e8ae6>@@AEAV<lambda_a775ed57af18ba8e4d5dc780aa9068fe>@@$$QEAV<lambda_975a71a6baa488a08f4e15f6b0339b9e>@@@Z@4HA 000000018002a348     libucrt:output.obj
 0002:0000a348       $unwind$?fin$0@?0???$?RV<lambda_450d765d439847d4c735a33c368b5fc0>@@AEAV<lambda_44731a7d0e6d81c3e6aa82d741081786>@@V<lambda_601a2a7da3b7a96e9554ac7215c4b07c>@@@?$__crt_seh_guarded_call@P6AXH@Z@@QEAAP6AXH@Z$$QEAV<lambda_450d765d439847d4c735a33c368b5fc0>@@AEAV<lambda_44731a7d0e6d81c3e6aa82d741081786>@@$$QEAV<lambda_601a2a7da3b7a96e9554ac7215c4b07c>@@@Z@4HA 000000018002a348     libucrt:signal.obj
 0002:0000a348       $unwind$?fin$0@?0???$?RV<lambda_a37b2b86f63e897a80ea819b0eb08c01>@@AEAV<lambda_38ce7e780aa69e748d6df282ebc68efe>@@V<lambda_99fb1378e971ab6e7edea83e3a7a83a2>@@@?$__crt_seh_guarded_call@H@@QEAAH$$QEAV<lambda_a37b2b86f63e897a80ea819b0eb08c01>@@AEAV<lambda_38ce7e780aa69e748d6df282ebc68efe>@@$$QEAV<lambda_99fb1378e971ab6e7edea83e3a7a83a2>@@@Z@4HA 000000018002a348     libucrt:commit.obj
 0002:0000a348       $unwind$?fin$0@?0???$?RV<lambda_efdfa57d1f175319df784efa44bb7b81>@@AEAV<lambda_5f0a4c1567f8adc6734073e5d1e1b35c>@@V<lambda_2e8a7d3640ea6ccb4c2413664c2db6fd>@@@?$__crt_seh_guarded_call@X@@QEAAX$$QEAV<lambda_efdfa57d1f175319df784efa44bb7b81>@@AEAV<lambda_5f0a4c1567f8adc6734073e5d1e1b35c>@@$$QEAV<lambda_2e8a7d3640ea6ccb4c2413664c2db6fd>@@@Z@4HA 000000018002a348     libucrt:mbctype.obj
 0002:0000a348       $unwind$_query_new_handler$fin$0 000000018002a348     libucrt:new_handler.obj
 0002:0000a348       $unwind$raise$fin$0        000000018002a348     libucrt:signal.obj
 0002:0000a348       $unwind$?fin$0@?0???$?RV<lambda_751a882b2c74d4b022dec766aa51a29a>@@AEAV<lambda_628dfdc04ba53c8bfc02c9951375f3f5>@@V<lambda_f6c7be5f7998530c34de24c7437d6b54>@@@?$__crt_seh_guarded_call@H@@QEAAH$$QEAV<lambda_751a882b2c74d4b022dec766aa51a29a>@@AEAV<lambda_628dfdc04ba53c8bfc02c9951375f3f5>@@$$QEAV<lambda_f6c7be5f7998530c34de24c7437d6b54>@@@Z@4HA 000000018002a348     libucrt:close.obj
 0002:0000a348       $unwind$?fin$0@?0???$?RV<lambda_0ae27a3a962d80f24befdcbee591983d>@@AEAV<lambda_8d0ee55de4b1038c4002e0adecdf1839>@@V<lambda_dc504788e8f1664fe9b84e20bfb512f2>@@@?$__crt_seh_guarded_call@X@@QEAAX$$QEAV<lambda_0ae27a3a962d80f24befdcbee591983d>@@AEAV<lambda_8d0ee55de4b1038c4002e0adecdf1839>@@$$QEAV<lambda_dc504788e8f1664fe9b84e20bfb512f2>@@@Z@4HA 000000018002a348     libucrt:per_thread_data.obj
 0002:0000a348       $unwind$_IsNonwritableInCurrentImage$filt$0 000000018002a348     LIBCMT:pesect.obj
 0002:0000a348       $unwind$?dtor$0@?0???0ScryptHashAsyncWorker@@QEAA@AEBV?$FunctionCallbackInfo@VValue@v8@@@Nan@@@Z@4HA 000000018002a348     scrypt_hash_async.obj
 0002:0000a348       $unwind$?fin$0@?0???$?RV<lambda_7777bce6b2f8c936911f934f8298dc43>@@AEAV<lambda_f03950bc5685219e0bcd2087efbe011e>@@V<lambda_3883c3dff614d5e0c5f61bb1ac94921c>@@@?$__crt_seh_guarded_call@H@@QEAAH$$QEAV<lambda_7777bce6b2f8c936911f934f8298dc43>@@AEAV<lambda_f03950bc5685219e0bcd2087efbe011e>@@$$QEAV<lambda_3883c3dff614d5e0c5f61bb1ac94921c>@@@Z@4HA 000000018002a348     libucrt:onexit.obj
 0002:0000a348       $unwind$?fin$0@?0???$?RV<lambda_aa87e3671a710a21b5dc78c0bdf72e11>@@AEAV<lambda_92619d2358a28f41a33ba319515a20b9>@@V<lambda_6992ecaafeb10aed2b74cb1fae11a551>@@@?$__crt_seh_guarded_call@X@@QEAAX$$QEAV<lambda_aa87e3671a710a21b5dc78c0bdf72e11>@@AEAV<lambda_92619d2358a28f41a33ba319515a20b9>@@$$QEAV<lambda_6992ecaafeb10aed2b74cb1fae11a551>@@@Z@4HA 000000018002a348     libucrt:per_thread_data.obj
 0002:0000a348       $unwind$__acrt_update_thread_locale_data$fin$0 000000018002a348     libucrt:locale_refcounting.obj
 0002:0000a348       $unwind$?fin$0@?0???$?RV<lambda_f2e299630e499de9f9a165e60fcd3db5>@@AEAV<lambda_2ae9d31cdba2644fcbeaf08da7c24588>@@V<lambda_40d01ff24d0e7b3814fdbdcee8eab3c7>@@@?$__crt_seh_guarded_call@X@@QEAAX$$QEAV<lambda_f2e299630e499de9f9a165e60fcd3db5>@@AEAV<lambda_2ae9d31cdba2644fcbeaf08da7c24588>@@$$QEAV<lambda_40d01ff24d0e7b3814fdbdcee8eab3c7>@@@Z@4HA 000000018002a348     libucrt:per_thread_data.obj
 0002:0000a348       $unwind$?fin$0@?0???$?RV<lambda_2d41944a1d46af3157314b8a01080d33>@@AEAV<lambda_8f455de75cd7d7f24b4096f044d8b9e6>@@V<lambda_aa500f224e6afead328df44964fe2772>@@@?$__crt_seh_guarded_call@X@@QEAAX$$QEAV<lambda_2d41944a1d46af3157314b8a01080d33>@@AEAV<lambda_8f455de75cd7d7f24b4096f044d8b9e6>@@$$QEAV<lambda_aa500f224e6afead328df44964fe2772>@@@Z@4HA 000000018002a348     libucrt:per_thread_data.obj
 0002:0000a348       $unwind$__CxxCallCatchBlock$filt$0 000000018002a348     libvcruntime:frame.obj
 0002:0000a348       $unwind$?dtor$0@?0??kdf@@YAXAEBV?$FunctionCallbackInfo@VValue@v8@@@Nan@@@Z@4HA 000000018002a348     scrypt_kdf_async.obj
 0002:0000a348       $unwind$?fin$0@?0???$?RV<lambda_d80eeec6fff315bfe5c115232f3240e3>@@AEAV<lambda_6e4b09c48022b2350581041d5f6b0c4c>@@V<lambda_2358e3775559c9db80273638284d5e45>@@@?$__crt_seh_guarded_call@X@@QEAAX$$QEAV<lambda_d80eeec6fff315bfe5c115232f3240e3>@@AEAV<lambda_6e4b09c48022b2350581041d5f6b0c4c>@@$$QEAV<lambda_2358e3775559c9db80273638284d5e45>@@@Z@4HA 000000018002a348     libucrt:exit.obj
 0002:0000a348       $unwind$?filt$0@?0???R<lambda_6e4b09c48022b2350581041d5f6b0c4c>@@QEBA@XZ@4HA 000000018002a348     libucrt:exit.obj
 0002:0000a348       $unwind$?fin$0@?0???$?RV<lambda_842d9ff0dc9ef11c61343bbaebe7f885>@@AEAV<lambda_c5860995281e5c4ce005b3de8f5874ee>@@V<lambda_d90129c13df834fdcbf8d2b88dafcf2d>@@@?$__crt_seh_guarded_call@X@@QEAAX$$QEAV<lambda_842d9ff0dc9ef11c61343bbaebe7f885>@@AEAV<lambda_c5860995281e5c4ce005b3de8f5874ee>@@$$QEAV<lambda_d90129c13df834fdcbf8d2b88dafcf2d>@@@Z@4HA 000000018002a348     libucrt:fflush.obj
 0002:0000a348       $unwind$?fin$0@?0???$?RV<lambda_886d6c58226a84441f68b9f2b8217b83>@@AEAV<lambda_ab61a845afdef5b7c387490eaf3616ee>@@V<lambda_f7f22ab5edc0698d5f6905b0d3f44752>@@@?$__crt_seh_guarded_call@X@@QEAAX$$QEAV<lambda_886d6c58226a84441f68b9f2b8217b83>@@AEAV<lambda_ab61a845afdef5b7c387490eaf3616ee>@@$$QEAV<lambda_f7f22ab5edc0698d5f6905b0d3f44752>@@@Z@4HA 000000018002a348     libucrt:fflush.obj
 0002:0000a348       $unwind$?fin$0@?0???$?RV<lambda_c376a267cfb53b6959b3b692ec76b120>@@AEAV<lambda_9a32fed5bf61b6b509b2d3f6003082a1>@@V<lambda_572fbb9fa0ab338edf41edfd4b5fcc8d>@@@?$__crt_seh_guarded_call@H@@QEAAH$$QEAV<lambda_c376a267cfb53b6959b3b692ec76b120>@@AEAV<lambda_9a32fed5bf61b6b509b2d3f6003082a1>@@$$QEAV<lambda_572fbb9fa0ab338edf41edfd4b5fcc8d>@@@Z@4HA 000000018002a348     libucrt:fflush.obj
 0002:0000a348       $unwind$?fin$0@?0???$?RV<lambda_84ec643ea9557e2f7dc01bb0e9624395>@@AEAV<lambda_ca71763b3c0644891230e4f79ea54fa6>@@V<lambda_439a761618c59b0600e24586724d733b>@@@?$__crt_seh_guarded_call@H@@QEAAH$$QEAV<lambda_84ec643ea9557e2f7dc01bb0e9624395>@@AEAV<lambda_ca71763b3c0644891230e4f79ea54fa6>@@$$QEAV<lambda_439a761618c59b0600e24586724d733b>@@@Z@4HA 000000018002a348     libucrt:setvbuf.obj
 0002:0000a350       $unwind$?paramsSync@@YAXAEBV?$FunctionCallbackInfo@VValue@v8@@@Nan@@@Z 000000018002a350     scrypt_params_sync.obj
 0002:0000a370       $stateUnwindMap$?paramsSync@@YAXAEBV?$FunctionCallbackInfo@VValue@v8@@@Nan@@@Z 000000018002a370     scrypt_params_sync.obj
 0002:0000a388       $ip2state$?paramsSync@@YAXAEBV?$FunctionCallbackInfo@VValue@v8@@@Nan@@@Z 000000018002a388     scrypt_params_sync.obj
 0002:0000a3c0       $unwind$?SaveToPersistent@AsyncWorker@Nan@@QEAAXPEBDAEBV?$Local@VValue@v8@@@v8@@@Z 000000018002a3c0     scrypt_kdf_async.obj
 0002:0000a3d8       $ip2state$?SaveToPersistent@AsyncWorker@Nan@@QEAAXPEBDAEBV?$Local@VValue@v8@@@v8@@@Z 000000018002a3d8     scrypt_kdf_async.obj
 0002:0000a3f0       $unwind$?GetFromPersistent@AsyncWorker@Nan@@QEBA?AV?$Local@VValue@v8@@@v8@@PEBD@Z 000000018002a3f0     scrypt_kdf_async.obj
 0002:0000a408       $ip2state$?GetFromPersistent@AsyncWorker@Nan@@QEBA?AV?$Local@VValue@v8@@@v8@@PEBD@Z 000000018002a408     scrypt_kdf_async.obj
 0002:0000a420       $unwind$??0Params@NodeScrypt@@QEAA@AEBV?$Local@VObject@v8@@@v8@@@Z 000000018002a420     scrypt_kdf_async.obj
 0002:0000a42c       $unwind$??0ScryptKDFAsyncWorker@@QEAA@AEBV?$FunctionCallbackInfo@VValue@v8@@@Nan@@@Z 000000018002a42c     scrypt_kdf_async.obj
 0002:0000a444       $stateUnwindMap$??0ScryptKDFAsyncWorker@@QEAA@AEBV?$FunctionCallbackInfo@VValue@v8@@@Nan@@@Z 000000018002a444     scrypt_kdf_async.obj
 0002:0000a444       $stateUnwindMap$??0ScryptHashAsyncWorker@@QEAA@AEBV?$FunctionCallbackInfo@VValue@v8@@@Nan@@@Z 000000018002a444     scrypt_hash_async.obj
 0002:0000a444       $stateUnwindMap$??0ScryptKDFVerifyAsyncWorker@@QEAA@AEBV?$FunctionCallbackInfo@VValue@v8@@@Nan@@@Z 000000018002a444     scrypt_kdf-verify_async.obj
 0002:0000a458       $ip2state$??0ScryptKDFAsyncWorker@@QEAA@AEBV?$FunctionCallbackInfo@VValue@v8@@@Nan@@@Z 000000018002a458     scrypt_kdf_async.obj
 0002:0000a480       $unwind$?Execute@ScryptKDFAsyncWorker@@UEAAXXZ 000000018002a480     scrypt_kdf_async.obj
 0002:0000a480       $unwind$__dcrt_lowio_ensure_console_output_initialized 000000018002a480     libucrt:initcon.obj
 0002:0000a480       $unwind$isdigit            000000018002a480     libucrt:_ctype.obj
 0002:0000a480       $unwind$_isleadbyte_l      000000018002a480     libucrt:_wctype.obj
 0002:0000a480       $unwind$?getSystemCP@@YAHH@Z 000000018002a480     libucrt:mbctype.obj
 0002:0000a488       $unwind$?HandleOKCallback@ScryptKDFAsyncWorker@@UEAAXXZ 000000018002a488     scrypt_kdf_async.obj
 0002:0000a49c       $stateUnwindMap$?HandleOKCallback@ScryptHashAsyncWorker@@UEAAXXZ 000000018002a49c     scrypt_hash_async.obj
 0002:0000a49c       $stateUnwindMap$?HandleOKCallback@ScryptKDFAsyncWorker@@UEAAXXZ 000000018002a49c     scrypt_kdf_async.obj
 0002:0000a4a8       $ip2state$?HandleOKCallback@ScryptKDFAsyncWorker@@UEAAXXZ 000000018002a4a8     scrypt_kdf_async.obj
 0002:0000a4c0       $unwind$?kdf@@YAXAEBV?$FunctionCallbackInfo@VValue@v8@@@Nan@@@Z 000000018002a4c0     scrypt_kdf_async.obj
 0002:0000a4d0       $stateUnwindMap$?kdf@@YAXAEBV?$FunctionCallbackInfo@VValue@v8@@@Nan@@@Z 000000018002a4d0     scrypt_kdf_async.obj
 0002:0000a4d8       $ip2state$?kdf@@YAXAEBV?$FunctionCallbackInfo@VValue@v8@@@Nan@@@Z 000000018002a4d8     scrypt_kdf_async.obj
 0002:0000a4e8       $unwind$?kdfSync@@YAXAEBV?$FunctionCallbackInfo@VValue@v8@@@Nan@@@Z 000000018002a4e8     scrypt_kdf_sync.obj
 0002:0000a4f8       $unwind$?kdfVerifySync@@YAXAEBV?$FunctionCallbackInfo@VValue@v8@@@Nan@@@Z 000000018002a4f8     scrypt_kdf-verify_sync.obj
 0002:0000a508       $unwind$??0ScryptKDFVerifyAsyncWorker@@QEAA@AEBV?$FunctionCallbackInfo@VValue@v8@@@Nan@@@Z 000000018002a508     scrypt_kdf-verify_async.obj
 0002:0000a520       $ip2state$??0ScryptKDFVerifyAsyncWorker@@QEAA@AEBV?$FunctionCallbackInfo@VValue@v8@@@Nan@@@Z 000000018002a520     scrypt_kdf-verify_async.obj
 0002:0000a548       $unwind$?HandleOKCallback@ScryptKDFVerifyAsyncWorker@@UEAAXXZ 000000018002a548     scrypt_kdf-verify_async.obj
 0002:0000a558       $ip2state$?HandleOKCallback@ScryptKDFVerifyAsyncWorker@@UEAAXXZ 000000018002a558     scrypt_kdf-verify_async.obj
 0002:0000a570       $unwind$?kdfVerify@@YAXAEBV?$FunctionCallbackInfo@VValue@v8@@@Nan@@@Z 000000018002a570     scrypt_kdf-verify_async.obj
 0002:0000a580       $stateUnwindMap$?kdfVerify@@YAXAEBV?$FunctionCallbackInfo@VValue@v8@@@Nan@@@Z 000000018002a580     scrypt_kdf-verify_async.obj
 0002:0000a588       $ip2state$?kdfVerify@@YAXAEBV?$FunctionCallbackInfo@VValue@v8@@@Nan@@@Z 000000018002a588     scrypt_kdf-verify_async.obj
 0002:0000a598       $unwind$?hashSync@@YAXAEBV?$FunctionCallbackInfo@VValue@v8@@@Nan@@@Z 000000018002a598     scrypt_hash_sync.obj
 0002:0000a5b0       $unwind$??0ScryptHashAsyncWorker@@QEAA@AEBV?$FunctionCallbackInfo@VValue@v8@@@Nan@@@Z 000000018002a5b0     scrypt_hash_async.obj
 0002:0000a5c8       $ip2state$??0ScryptHashAsyncWorker@@QEAA@AEBV?$FunctionCallbackInfo@VValue@v8@@@Nan@@@Z 000000018002a5c8     scrypt_hash_async.obj
 0002:0000a5f0       $unwind$?Execute@ScryptHashAsyncWorker@@UEAAXXZ 000000018002a5f0     scrypt_hash_async.obj
 0002:0000a5fc       $unwind$?HandleOKCallback@ScryptHashAsyncWorker@@UEAAXXZ 000000018002a5fc     scrypt_hash_async.obj
 0002:0000a610       $ip2state$?HandleOKCallback@ScryptHashAsyncWorker@@UEAAXXZ 000000018002a610     scrypt_hash_async.obj
 0002:0000a628       $unwind$?hash@@YAXAEBV?$FunctionCallbackInfo@VValue@v8@@@Nan@@@Z 000000018002a628     scrypt_hash_async.obj
 0002:0000a638       $stateUnwindMap$?hash@@YAXAEBV?$FunctionCallbackInfo@VValue@v8@@@Nan@@@Z 000000018002a638     scrypt_hash_async.obj
 0002:0000a640       $ip2state$?hash@@YAXAEBV?$FunctionCallbackInfo@VValue@v8@@@Nan@@@Z 000000018002a640     scrypt_hash_async.obj
 0002:0000a650       $unwind$?FunctionCallbackWrapper@imp@Nan@@YAXAEBV?$FunctionCallbackInfo@VValue@v8@@@v8@@@Z 000000018002a650     scrypt_node.obj
 0002:0000a660       $unwind$?InitAll@@YAXV?$Local@VObject@v8@@@v8@@@Z 000000018002a660     scrypt_node.obj
 0002:0000a678       $stateUnwindMap$?InitAll@@YAXV?$Local@VObject@v8@@@v8@@@Z 000000018002a678     scrypt_node.obj
 0002:0000a700       $ip2state$?InitAll@@YAXV?$Local@VObject@v8@@@v8@@@Z 000000018002a700     scrypt_node.obj
 0002:0000a808       $unwind$??$New@VFunctionTemplate@v8@@@Nan@@YA?AV?$Local@VFunctionTemplate@v8@@@v8@@P6AXAEBV?$FunctionCallbackInfo@VValue@v8@@@0@@ZV?$Local@VValue@v8@@@2@@Z 000000018002a808     scrypt_node.obj
 0002:0000a828       $stateUnwindMap$??$New@VFunctionTemplate@v8@@@Nan@@YA?AV?$Local@VFunctionTemplate@v8@@@v8@@P6AXAEBV?$FunctionCallbackInfo@VValue@v8@@@0@@ZV?$Local@VValue@v8@@@2@@Z 000000018002a828     scrypt_node.obj
 0002:0000a838       $ip2state$??$New@VFunctionTemplate@v8@@@Nan@@YA?AV?$Local@VFunctionTemplate@v8@@@v8@@P6AXAEBV?$FunctionCallbackInfo@VValue@v8@@@0@@ZV?$Local@VValue@v8@@@2@@Z 000000018002a838     scrypt_node.obj
 0002:0000a860       $unwind$pickparams         000000018002a860     scrypt_wrapper:pickparams.obj
 0002:0000a874       $unwind$KDF                000000018002a874     scrypt_wrapper:keyderivation.obj
 0002:0000a894       $unwind$Verify             000000018002a894     scrypt_wrapper:keyderivation.obj
 0002:0000a8b4       $unwind$scryptenc_cpuperf  000000018002a8b4     scrypt_lib:scryptenc_cpuperf.obj
 0002:0000a8e0       $unwind$SHA256_Transform   000000018002a8e0     scrypt_lib:sha256.obj
 0002:0000a904       $unwind$SHA256_Pad         000000018002a904     scrypt_lib:sha256.obj
 0002:0000a918       $chain$2$SHA256_Pad        000000018002a918     scrypt_lib:sha256.obj
 0002:0000a934       $chain$3$SHA256_Pad        000000018002a934     scrypt_lib:sha256.obj
 0002:0000a944       $unwind$libcperciva_SHA256_Update 000000018002a944     scrypt_lib:sha256.obj
 0002:0000a958       $chain$0$libcperciva_SHA256_Update 000000018002a958     scrypt_lib:sha256.obj
 0002:0000a96c       $chain$1$libcperciva_SHA256_Update 000000018002a96c     scrypt_lib:sha256.obj
 0002:0000a97c       $unwind$libcperciva_HMAC_SHA256_Init 000000018002a97c     scrypt_lib:sha256.obj
 0002:0000a998       $chain$0$libcperciva_HMAC_SHA256_Init 000000018002a998     scrypt_lib:sha256.obj
 0002:0000a9ac       $chain$1$libcperciva_HMAC_SHA256_Init 000000018002a9ac     scrypt_lib:sha256.obj
 0002:0000a9bc       $unwind$libcperciva_HMAC_SHA256_Final 000000018002a9bc     scrypt_lib:sha256.obj
 0002:0000a9d4       $chain$1$libcperciva_HMAC_SHA256_Final 000000018002a9d4     scrypt_lib:sha256.obj
 0002:0000a9ec       $chain$2$libcperciva_HMAC_SHA256_Final 000000018002a9ec     scrypt_lib:sha256.obj
 0002:0000a9fc       $unwind$PBKDF2_SHA256      000000018002a9fc     scrypt_lib:sha256.obj
 0002:0000aa1c       $unwind$_crypto_scrypt     000000018002aa1c     scrypt_lib:crypto_scrypt.obj
 0002:0000aa34       $unwind$crypto_scrypt      000000018002aa34     scrypt_lib:crypto_scrypt.obj
 0002:0000aa54       $unwind$fwprintf           000000018002aa54     libucrt:assert.obj
 0002:0000aa54       $unwind$fprintf            000000018002aa54     scrypt_lib:warnp.obj
 0002:0000aa60       $unwind$libcperciva_warnx  000000018002aa60     scrypt_lib:warnp.obj
 0002:0000aa68       $chain$1$libcperciva_warnx 000000018002aa68     scrypt_lib:warnp.obj
 0002:0000aa80       $chain$2$libcperciva_warnx 000000018002aa80     scrypt_lib:warnp.obj
 0002:0000aa90       $unwind$salsa20_8          000000018002aa90     scrypt_lib:crypto_scrypt_smix.obj
 0002:0000aab8       $unwind$blockmix_salsa8    000000018002aab8     scrypt_lib:crypto_scrypt_smix.obj
 0002:0000aac4       $chain$4$blockmix_salsa8   000000018002aac4     scrypt_lib:crypto_scrypt_smix.obj
 0002:0000aae8       $chain$5$blockmix_salsa8   000000018002aae8     scrypt_lib:crypto_scrypt_smix.obj
 0002:0000aaf8       $unwind$crypto_scrypt_smix 000000018002aaf8     scrypt_lib:crypto_scrypt_smix.obj
 0002:0000ab04       $chain$3$crypto_scrypt_smix 000000018002ab04     scrypt_lib:crypto_scrypt_smix.obj
 0002:0000ab24       $chain$5$crypto_scrypt_smix 000000018002ab24     scrypt_lib:crypto_scrypt_smix.obj
 0002:0000ab3c       $chain$6$crypto_scrypt_smix 000000018002ab3c     scrypt_lib:crypto_scrypt_smix.obj
 0002:0000ab4c       $chain$7$crypto_scrypt_smix 000000018002ab4c     scrypt_lib:crypto_scrypt_smix.obj
 0002:0000ab5c       xdata                      000000018002ab5c     node:node.exe
 0002:0000ab64       $unwind$_raise_exc         000000018002ab64     libucrt:fpexcept.obj
 0002:0000ab64       $unwind$?_Xlength_error@std@@YAXPEBD@Z 000000018002ab64     libcpmt:xthrow.obj
 0002:0000ab64       $unwind$?__scrt_throw_std_bad_array_new_length@@YAXXZ 000000018002ab64     LIBCMT:throw_bad_alloc.obj
 0002:0000ab64       $unwind$?__scrt_throw_std_bad_alloc@@YAXXZ 000000018002ab64     LIBCMT:throw_bad_alloc.obj
 0002:0000ab70       $xdatasym                  000000018002ab70     LIBCMT:_amdsecgs_.obj
 0002:0000ab74       $unwind$?dllmain_crt_process_attach@@YAHQEAUHINSTANCE__@@QEAX@Z 000000018002ab74     LIBCMT:dll_dllmain.obj
 0002:0000abb0       $unwind$?dllmain_crt_process_detach@@YAH_N@Z 000000018002abb0     LIBCMT:dll_dllmain.obj
 0002:0000abe4       $unwind$?dllmain_dispatch@@YAHQEAUHINSTANCE__@@KQEAX@Z 000000018002abe4     LIBCMT:dll_dllmain.obj
 0002:0000ac0c       $unwind$?filt$0@?0??dllmain_dispatch@@YAHQEAUHINSTANCE__@@KQEAX@Z@4HA 000000018002ac0c     LIBCMT:dll_dllmain.obj
 0002:0000ac14       $unwind$?type_case_n@?$output_processor@_WV?$stream_output_adapter@_W@__crt_stdio_output@@V?$standard_base@_WV?$stream_output_adapter@_W@__crt_stdio_output@@@2@@__crt_stdio_output@@AEAA_NXZ 000000018002ac14     libucrt:output.obj
 0002:0000ac14       $unwind$_DllMainCRTStartup 000000018002ac14     LIBCMT:dll_dllmain.obj
 0002:0000ac14       $unwind$?type_case_Z@?$output_processor@_WV?$string_output_adapter@_W@__crt_stdio_output@@V?$standard_base@_WV?$string_output_adapter@_W@__crt_stdio_output@@@2@@__crt_stdio_output@@AEAA_NXZ 000000018002ac14     libucrt:output.obj
 0002:0000ac14       $unwind$?type_case_s@?$output_processor@_WV?$string_output_adapter@_W@__crt_stdio_output@@V?$standard_base@_WV?$string_output_adapter@_W@__crt_stdio_output@@@2@@__crt_stdio_output@@AEAA_NXZ 000000018002ac14     libucrt:output.obj
 0002:0000ac14       $unwind$??$common_lseek_nolock@_J@@YA_JH_JH@Z 000000018002ac14     libucrt:lseek.obj
 0002:0000ac14       $unwind$??0_LocaleUpdate@@QEAA@QEAU__crt_locale_pointers@@@Z 000000018002ac14     libucrt:stricmp.obj
 0002:0000ac14       $unwind$?type_case_n@?$output_processor@_WV?$string_output_adapter@_W@__crt_stdio_output@@V?$standard_base@_WV?$string_output_adapter@_W@__crt_stdio_output@@@2@@__crt_stdio_output@@AEAA_NXZ 000000018002ac14     libucrt:output.obj
 0002:0000ac14       $unwind$?type_case_Z@?$output_processor@_WV?$stream_output_adapter@_W@__crt_stdio_output@@V?$standard_base@_WV?$stream_output_adapter@_W@__crt_stdio_output@@@2@@__crt_stdio_output@@AEAA_NXZ 000000018002ac14     libucrt:output.obj
 0002:0000ac14       $unwind$memcpy_s           000000018002ac14     libucrt:cfout.obj
 0002:0000ac14       $unwind$?free_crt_array_internal@@YAXQEAPEBX_K@Z 000000018002ac14     libucrt:inittime.obj
 0002:0000ac14       $unwind$__acrt_execute_initializers 000000018002ac14     libucrt:shared_initialization.obj
 0002:0000ac14       $unwind$__acrt_InitializeCriticalSectionEx 000000018002ac14     libucrt:winapi_thunks.obj
 0002:0000ac14       $unwind$__acrt_stdio_flush_and_write_narrow_nolock 000000018002ac14     libucrt:_flsbuf.obj
 0002:0000ac14       $unwind$_exception_enabled 000000018002ac14     libucrt:libm_error.obj
 0002:0000ac14       $unwind$__acrt_stdio_flush_nolock 000000018002ac14     libucrt:fflush.obj
 0002:0000ac14       $unwind$__acrt_stdio_flush_and_write_wide_nolock 000000018002ac14     libucrt:_flsbuf.obj
 0002:0000ac14       $unwind$__vcrt_getptd_noexit 000000018002ac14     libvcruntime:per_thread_data.obj
 0002:0000ac14       $unwind$?type_case_n@?$output_processor@DV?$stream_output_adapter@D@__crt_stdio_output@@V?$standard_base@DV?$stream_output_adapter@D@__crt_stdio_output@@@2@@__crt_stdio_output@@AEAA_NXZ 000000018002ac14     libucrt:output.obj
 0002:0000ac14       $unwind$__vcrt_InitializeCriticalSectionEx 000000018002ac14     libvcruntime:winapi_downlevel.obj
 0002:0000ac14       $unwind$?type_case_s@?$output_processor@_WV?$stream_output_adapter@_W@__crt_stdio_output@@V?$standard_base@_WV?$stream_output_adapter@_W@__crt_stdio_output@@@2@@__crt_stdio_output@@AEAA_NXZ 000000018002ac14     libucrt:output.obj
 0002:0000ac24       $unwind$__scrt_is_nonwritable_in_current_image 000000018002ac24     LIBCMT:utility.obj
 0002:0000ac44       $unwind$__scrt_is_nonwritable_in_current_image$filt$0 000000018002ac44     LIBCMT:utility.obj
 0002:0000ac4c       $unwind$__scrt_initialize_onexit_tables 000000018002ac4c     LIBCMT:utility.obj
 0002:0000ac58       $unwind$__acrt_lowio_create_handle_array 000000018002ac58     libucrt:osfinfo.obj
 0002:0000ac58       $unwind$__acrt_show_wide_message_box 000000018002ac58     libucrt:crtmbox.obj
 0002:0000ac58       $unwind$?_ExecutionInCatch@@YAHPEAU_xDISPATCHER_CONTEXT@@PEBU_s_FuncInfo@@@Z 000000018002ac58     libvcruntime:risctrnsctrl.obj
 0002:0000ac58       $unwind$_wassert           000000018002ac58     libucrt:assert.obj
 0002:0000ac58       $unwind$??$common_xtox@K_W@@YAHKQEA_W_KI_N@Z 000000018002ac58     libucrt:xtoa.obj
 0002:0000ac58       $unwind$__scrt_dllmain_exception_filter 000000018002ac58     LIBCMT:utility.obj
 0002:0000ac58       $unwind$_recalloc_base     000000018002ac58     libucrt:recalloc.obj
 0002:0000ac58       $unwind$??$ensure_buffer_is_big_enough@_W@formatting_buffer@__crt_stdio_output@@QEAA_N_K@Z 000000018002ac58     libucrt:output.obj
 0002:0000ac58       $unwind$??$ensure_buffer_is_big_enough@D@formatting_buffer@__crt_stdio_output@@QEAA_N_K@Z 000000018002ac58     libucrt:output.obj
 0002:0000ac58       $unwind$?setSBCS@@YAXPEAU__crt_multibyte_data@@@Z 000000018002ac58     libucrt:mbctype.obj
 0002:0000ac58       $unwind$_seh_filter_exe    000000018002ac58     libucrt:exception_filter.obj
 0002:0000ac58       $unwind$__acrt_free_locale 000000018002ac58     libucrt:locale_refcounting.obj
 0002:0000ac58       $unwind$_initterm          000000018002ac58     libucrt:initterm.obj
 0002:0000ac6c       $unwind$__report_securityfailure 000000018002ac6c     LIBCMT:gs_report.obj
 0002:0000ac74       $unwind$__report_gsfailure 000000018002ac74     LIBCMT:gs_report.obj
 0002:0000ac7c       $unwind$capture_current_context 000000018002ac7c     LIBCMT:gs_report.obj
 0002:0000ac88       $unwind$capture_previous_context 000000018002ac88     LIBCMT:gs_report.obj
 0002:0000ac94       $unwind$__security_init_cookie 000000018002ac94     LIBCMT:gs_support.obj
 0002:0000aca0       $unwind$__scrt_fastfail    000000018002aca0     LIBCMT:utility_desktop.obj
 0002:0000acb0       $unwind$__isa_available_init 000000018002acb0     LIBCMT:_cpu_disp_.obj
 0002:0000acc8       $xdatasym                  000000018002acc8     LIBCMT:_guard_dispatch_.obj
 0002:0000accc       $unwind$?_GetEstablisherFrame@@YAPEA_KPEA_KPEAU_xDISPATCHER_CONTEXT@@PEBU_s_FuncInfo@@0@Z 000000018002accc     libvcruntime:risctrnsctrl.obj
 0002:0000ace4       $unwind$?__FrameUnwindToEmptyState@@YAXPEA_KPEAU_xDISPATCHER_CONTEXT@@PEBU_s_FuncInfo@@@Z 000000018002ace4     libvcruntime:risctrnsctrl.obj
 0002:0000acf8       $unwind$_CallSETranslator  000000018002acf8     libvcruntime:risctrnsctrl.obj
 0002:0000ad18       $unwind$_CallSETranslator$filt$0 000000018002ad18     libvcruntime:risctrnsctrl.obj
 0002:0000ad24       $unwind$?write_string_impl@?$output_adapter_common@DV?$stream_output_adapter@D@__crt_stdio_output@@@__crt_stdio_output@@IEBAXQEBDHQEAHAEAV__crt_deferred_errno_cache@@@Z 000000018002ad24     libucrt:output.obj
 0002:0000ad24       $unwind$?_GetRangeOfTrysToCheck@@YAPEBU_s_TryBlockMapEntry@@PEA_KPEBU_s_FuncInfo@@HHPEAI2PEAU_xDISPATCHER_CONTEXT@@@Z 000000018002ad24     libvcruntime:risctrnsctrl.obj
 0002:0000ad24       $unwind$??$parse_command_line@D@@YAXPEADPEAPEAD0PEA_K2@Z 000000018002ad24     libucrt:argv_parsing.obj
 0002:0000ad24       $unwind$?write_string_impl@?$output_adapter_common@_WV?$stream_output_adapter@_W@__crt_stdio_output@@@__crt_stdio_output@@IEBAXQEB_WHQEAHAEAV__crt_deferred_errno_cache@@@Z 000000018002ad24     libucrt:output.obj
 0002:0000ad40       $unwind$_UnwindNestedFrames 000000018002ad40     libvcruntime:risctrnsctrl.obj
 0002:0000ad54       $unwind$__CxxFrameHandler3 000000018002ad54     libvcruntime:risctrnsctrl.obj
 0002:0000ad64       $unwind$__DestructExceptionObject 000000018002ad64     libvcruntime:ehhelpers.obj
 0002:0000ad84       $unwind$?initialize_stdio_handles_nolock@@YAXXZ 000000018002ad84     libucrt:ioinit.obj
 0002:0000ad84       $unwind$__std_exception_copy 000000018002ad84     libvcruntime:std_exception.obj
 0002:0000ad84       $unwind$_free_osfhnd       000000018002ad84     libucrt:osfinfo.obj
 0002:0000ad98       $unwind$_CxxThrowException 000000018002ad98     libvcruntime:throw.obj
 0002:0000ada8       $unwind$__C_specific_handler 000000018002ada8     libvcruntime:_riscchandler_.obj
 0002:0000adc8       $xdatasym                  000000018002adc8     libvcruntime:memset.obj
 0002:0000adcc       $unwind$__CxxCallCatchBlock 000000018002adcc     libvcruntime:frame.obj
 0002:0000ae08       $unwind$__CxxCallCatchBlock$fin$1 000000018002ae08     libvcruntime:frame.obj
 0002:0000ae14       $unwind$__BuildCatchObject 000000018002ae14     libvcruntime:frame.obj
 0002:0000ae40       $unwind$__acrt_initialize_stdio 000000018002ae40     libucrt:_file.obj
 0002:0000ae40       $unwind$__TypeMatch        000000018002ae40     libvcruntime:frame.obj
 0002:0000ae40       $unwind$__GSHandlerCheck_EH 000000018002ae40     LIBCMT:gshandlereh.obj
 0002:0000ae58       $unwind$__InternalCxxFrameHandler 000000018002ae58     libvcruntime:frame.obj
 0002:0000ae70       $unwind$__FrameUnwindToState 000000018002ae70     libvcruntime:frame.obj
 0002:0000aebc       $unwind$?FindHandler@@YAXPEAUEHExceptionRecord@@PEA_KPEAU_CONTEXT@@PEAU_xDISPATCHER_CONTEXT@@PEBU_s_FuncInfo@@EH1@Z 000000018002aebc     libvcruntime:frame.obj
 0002:0000aedc       $unwind$?CatchIt@@YAXPEAUEHExceptionRecord@@PEA_KPEAU_CONTEXT@@PEAU_xDISPATCHER_CONTEXT@@PEBU_s_FuncInfo@@PEBU_s_HandlerType@@PEBU_s_CatchableType@@PEBU_s_TryBlockMapEntry@@H1EE@Z 000000018002aedc     libvcruntime:frame.obj
 0002:0000aef4       $unwind$?FindHandlerForForeignException@@YAXPEAUEHExceptionRecord@@PEA_KPEAU_CONTEXT@@PEAU_xDISPATCHER_CONTEXT@@PEBU_s_FuncInfo@@HH1@Z 000000018002aef4     libvcruntime:frame.obj
 0002:0000af0c       $unwind$?IsInExceptionSpec@@YAEPEAUEHExceptionRecord@@PEBU_s_ESTypeList@@@Z 000000018002af0c     libvcruntime:frame.obj
 0002:0000af0c       $unwind$?try_get_function@@YAPEAXW4function_id@?A0x89697e75@@QEBDQEBW4module_id@2@2@Z 000000018002af0c     libvcruntime:winapi_downlevel.obj
 0002:0000af0c       $unwind$?try_get_function@@YAPEAXW4function_id@?A0x391cf84c@@QEBDQEBW4module_id@2@2@Z 000000018002af0c     libucrt:winapi_thunks.obj
 0002:0000af0c       $unwind$??R<lambda_f03950bc5685219e0bcd2087efbe011e>@@QEBAHXZ 000000018002af0c     libucrt:onexit.obj
 0002:0000af28       $unwind$__BuildCatchObjectHelper 000000018002af28     libvcruntime:frame.obj
 0002:0000af68       $xdatasym                  000000018002af68     libvcruntime:_jmpuwind_.obj
 0002:0000af7c       $unwind$__acrt_initialize_winapi_thunks 000000018002af7c     libucrt:winapi_thunks.obj
 0002:0000af7c       $unwind$__vcrt_initialize_winapi_thunks 000000018002af7c     libvcruntime:winapi_downlevel.obj
 0002:0000af84       $unwind$__acrt_stdio_end_temporary_buffering_nolock 000000018002af84     libucrt:_sftbuf.obj
 0002:0000af84       $unwind$__vcrt_uninitialize_winapi_thunks 000000018002af84     libvcruntime:winapi_downlevel.obj
 0002:0000af90       $xdatasym                  000000018002af90     libvcruntime:handlers.obj
 0002:0000af98       $xdatasym                  000000018002af98     libvcruntime:memcpy.obj
 0002:0000af9c       $unwind$strerror           000000018002af9c     libucrt:strerror.obj
 0002:0000afa8       $unwind$_itow_s            000000018002afa8     libucrt:xtoa.obj
 0002:0000afa8       $unwind$_log10_special     000000018002afa8     libucrt:log_special.obj
 0002:0000afa8       $unwind$_invalid_parameter_noinfo_noreturn 000000018002afa8     libucrt:invalid_parameter.obj
 0002:0000afa8       $unwind$_invalid_parameter_noinfo 000000018002afa8     libucrt:invalid_parameter.obj
 0002:0000afa8       $unwind$fflush             000000018002afa8     libucrt:fflush.obj
 0002:0000afa8       $unwind$wctomb_s           000000018002afa8     libucrt:wctomb.obj
 0002:0000afa8       $unwind$strtol             000000018002afa8     libucrt:strtox.obj
 0002:0000afa8       $unwind$wcstol             000000018002afa8     libucrt:strtox.obj
 0002:0000afb0       $unwind$__acrt_call_reportfault 000000018002afb0     libucrt:invalid_parameter.obj
 0002:0000afd0       $unwind$_invalid_parameter 000000018002afd0     libucrt:invalid_parameter.obj
 0002:0000afd0       $unwind$??$__acrt_convert_wcs_mbs@_WD$$A6A_KPEADPEB_W_KPEAU__crt_locale_pointers@@@ZU__crt_win32_buffer_no_resizing@@@@YAHQEB_WAEAV?$__crt_win32_buffer@DU__crt_win32_buffer_no_resizing@@@@A6A_KPEADPEB_W_KPEAU__crt_locale_pointers@@@Z5@Z 000000018002afd0     libucrt:findnextfilea.obj
 0002:0000afd0       $unwind$__acrt_MessageBoxW 000000018002afd0     libucrt:winapi_thunks.obj
 0002:0000afe4       $unwind$swprintf           000000018002afe4     libucrt:assert.obj
 0002:0000aff4       $unwind$??$common_assert_to_stderr@_W@@YAXQEB_W0I@Z 000000018002aff4     libucrt:assert.obj
 0002:0000b010       $unwind$??$common_assert_to_message_box@_W@@YAXQEB_W0IQEAX@Z 000000018002b010     libucrt:assert.obj
 0002:0000b02c       $unwind$??$common_assert_to_message_box_build_string@_W@@YAXQEA_W_KQEB_W2IQEAX@Z 000000018002b02c     libucrt:assert.obj
 0002:0000b04c       $unwind$_stricmp_l         000000018002b04c     libucrt:stricmp.obj
 0002:0000b04c       $unwind$?x_ismbbtype_l@@YAHPEAU__crt_locale_pointers@@IHH@Z 000000018002b04c     libucrt:ismbbyte.obj
 0002:0000b05c       $unwind$__stdio_common_vfwprintf 000000018002b05c     libucrt:output.obj
 0002:0000b05c       $unwind$__stdio_common_vfprintf 000000018002b05c     libucrt:output.obj
 0002:0000b064       $unwind$??$common_vsprintf@Vstandard_base@__crt_stdio_output@@_W@@YAH_KQEA_W0QEB_WQEAU__crt_locale_pointers@@QEAD@Z 000000018002b064     libucrt:output.obj
 0002:0000b084       $unwind$?process@?$output_processor@DV?$stream_output_adapter@D@__crt_stdio_output@@V?$standard_base@DV?$stream_output_adapter@D@__crt_stdio_output@@@2@@__crt_stdio_output@@QEAAHXZ 000000018002b084     libucrt:output.obj
 0002:0000b094       $unwind$?parse_int_from_format_string@?$output_processor@DV?$stream_output_adapter@D@__crt_stdio_output@@V?$standard_base@DV?$stream_output_adapter@D@__crt_stdio_output@@@2@@__crt_stdio_output@@AEAA_NQEAH@Z 000000018002b094     libucrt:output.obj
 0002:0000b094       $unwind$?process@?$output_processor@_WV?$string_output_adapter@_W@__crt_stdio_output@@V?$standard_base@_WV?$string_output_adapter@_W@__crt_stdio_output@@@2@@__crt_stdio_output@@QEAAHXZ 000000018002b094     libucrt:output.obj
 0002:0000b094       $unwind$?process@?$output_processor@_WV?$stream_output_adapter@_W@__crt_stdio_output@@V?$standard_base@_WV?$stream_output_adapter@_W@__crt_stdio_output@@@2@@__crt_stdio_output@@QEAAHXZ 000000018002b094     libucrt:output.obj
 0002:0000b0a8       $unwind$?state_case_type@?$output_processor@DV?$stream_output_adapter@D@__crt_stdio_output@@V?$standard_base@DV?$stream_output_adapter@D@__crt_stdio_output@@@2@@__crt_stdio_output@@AEAA_NXZ 000000018002b0a8     libucrt:output.obj
 0002:0000b0c0       $unwind$?type_case_a@?$output_processor@DV?$stream_output_adapter@D@__crt_stdio_output@@V?$standard_base@DV?$stream_output_adapter@D@__crt_stdio_output@@@2@@__crt_stdio_output@@AEAA_NXZ 000000018002b0c0     libucrt:output.obj
 0002:0000b0cc       $unwind$?type_case_integer@?$output_processor@DV?$stream_output_adapter@D@__crt_stdio_output@@V?$standard_base@DV?$stream_output_adapter@D@__crt_stdio_output@@@2@@__crt_stdio_output@@AEAA_NI_N@Z 000000018002b0cc     libucrt:output.obj
 0002:0000b0cc       $unwind$?type_case_integer@?$output_processor@_WV?$stream_output_adapter@_W@__crt_stdio_output@@V?$standard_base@_WV?$stream_output_adapter@_W@__crt_stdio_output@@@2@@__crt_stdio_output@@AEAA_NI_N@Z 000000018002b0cc     libucrt:output.obj
 0002:0000b0cc       $unwind$?type_case_integer@?$output_processor@_WV?$string_output_adapter@_W@__crt_stdio_output@@V?$standard_base@_WV?$string_output_adapter@_W@__crt_stdio_output@@@2@@__crt_stdio_output@@AEAA_NI_N@Z 000000018002b0cc     libucrt:output.obj
 0002:0000b0e4       $unwind$?write_stored_string_tchar@?$output_processor@DV?$stream_output_adapter@D@__crt_stdio_output@@V?$standard_base@DV?$stream_output_adapter@D@__crt_stdio_output@@@2@@__crt_stdio_output@@AEAA_ND@Z 000000018002b0e4     libucrt:output.obj
 0002:0000b0fc       $unwind$??R<lambda_a775ed57af18ba8e4d5dc780aa9068fe>@@QEBAHXZ 000000018002b0fc     libucrt:output.obj
 0002:0000b0fc       $unwind$??R<lambda_a31071773b9a94e445cbd5d04ef99106>@@QEBAHXZ 000000018002b0fc     libucrt:output.obj
 0002:0000b11c       $unwind$?parse_int_from_format_string@?$output_processor@_WV?$string_output_adapter@_W@__crt_stdio_output@@V?$standard_base@_WV?$string_output_adapter@_W@__crt_stdio_output@@@2@@__crt_stdio_output@@AEAA_NQEAH@Z 000000018002b11c     libucrt:output.obj
 0002:0000b11c       $unwind$?parse_int_from_format_string@?$output_processor@_WV?$stream_output_adapter@_W@__crt_stdio_output@@V?$standard_base@_WV?$stream_output_adapter@_W@__crt_stdio_output@@@2@@__crt_stdio_output@@AEAA_NQEAH@Z 000000018002b11c     libucrt:output.obj
 0002:0000b130       $unwind$?state_case_type@?$output_processor@_WV?$stream_output_adapter@_W@__crt_stdio_output@@V?$standard_base@_WV?$stream_output_adapter@_W@__crt_stdio_output@@@2@@__crt_stdio_output@@AEAA_NXZ 000000018002b130     libucrt:output.obj
 0002:0000b150       $unwind$??R<lambda_ca71763b3c0644891230e4f79ea54fa6>@@QEBAHXZ 000000018002b150     libucrt:setvbuf.obj
 0002:0000b150       $unwind$?type_case_c_tchar@?$output_processor@_WV?$string_output_adapter@_W@__crt_stdio_output@@V?$standard_base@_WV?$string_output_adapter@_W@__crt_stdio_output@@@2@@__crt_stdio_output@@AEAA_N_W@Z 000000018002b150     libucrt:output.obj
 0002:0000b150       $unwind$?type_case_c_tchar@?$output_processor@_WV?$stream_output_adapter@_W@__crt_stdio_output@@V?$standard_base@_WV?$stream_output_adapter@_W@__crt_stdio_output@@@2@@__crt_stdio_output@@AEAA_N_W@Z 000000018002b150     libucrt:output.obj
 0002:0000b160       $unwind$?type_case_a@?$output_processor@_WV?$string_output_adapter@_W@__crt_stdio_output@@V?$standard_base@_WV?$string_output_adapter@_W@__crt_stdio_output@@@2@@__crt_stdio_output@@AEAA_NXZ 000000018002b160     libucrt:output.obj
 0002:0000b160       $unwind$?type_case_a@?$output_processor@_WV?$stream_output_adapter@_W@__crt_stdio_output@@V?$standard_base@_WV?$stream_output_adapter@_W@__crt_stdio_output@@@2@@__crt_stdio_output@@AEAA_NXZ 000000018002b160     libucrt:output.obj
 0002:0000b170       $unwind$?write_stored_string_tchar@?$output_processor@_WV?$stream_output_adapter@_W@__crt_stdio_output@@V?$standard_base@_WV?$stream_output_adapter@_W@__crt_stdio_output@@@2@@__crt_stdio_output@@AEAA_N_W@Z 000000018002b170     libucrt:output.obj
 0002:0000b184       $unwind$?write_string@?$string_output_adapter@_W@__crt_stdio_output@@QEBAXQEB_WHQEAHAEAV__crt_deferred_errno_cache@@@Z 000000018002b184     libucrt:output.obj
 0002:0000b19c       $unwind$?state_case_type@?$output_processor@_WV?$string_output_adapter@_W@__crt_stdio_output@@V?$standard_base@_WV?$string_output_adapter@_W@__crt_stdio_output@@@2@@__crt_stdio_output@@AEAA_NXZ 000000018002b19c     libucrt:output.obj
 0002:0000b1c0       $unwind$?write_stored_string_tchar@?$output_processor@_WV?$string_output_adapter@_W@__crt_stdio_output@@V?$standard_base@_WV?$string_output_adapter@_W@__crt_stdio_output@@@2@@__crt_stdio_output@@AEAA_N_W@Z 000000018002b1c0     libucrt:output.obj
 0002:0000b1d4       $unwind$??$write_multiple_characters@V?$string_output_adapter@_W@__crt_stdio_output@@D@__crt_stdio_output@@YAXAEBV?$string_output_adapter@_W@0@DHQEAH@Z 000000018002b1d4     libucrt:output.obj
 0002:0000b1e0       $unwind$??$write_multiple_characters@V?$stream_output_adapter@_W@__crt_stdio_output@@D@__crt_stdio_output@@YAXAEBV?$stream_output_adapter@_W@0@DHQEAH@Z 000000018002b1e0     libucrt:output.obj
 0002:0000b1e0       $unwind$??$write_multiple_characters@V?$stream_output_adapter@D@__crt_stdio_output@@D@__crt_stdio_output@@YAXAEBV?$stream_output_adapter@D@0@DHQEAH@Z 000000018002b1e0     libucrt:output.obj
 0002:0000b1f8       $unwind$??$type_case_integer_parse_into_buffer@_K@?$output_processor@DV?$stream_output_adapter@D@__crt_stdio_output@@V?$standard_base@DV?$stream_output_adapter@D@__crt_stdio_output@@@2@@__crt_stdio_output@@AEAAX_KI_N@Z 000000018002b1f8     libucrt:output.obj
 0002:0000b1f8       $unwind$??$type_case_integer_parse_into_buffer@I@?$output_processor@DV?$stream_output_adapter@D@__crt_stdio_output@@V?$standard_base@DV?$stream_output_adapter@D@__crt_stdio_output@@@2@@__crt_stdio_output@@AEAAXII_N@Z 000000018002b1f8     libucrt:output.obj
 0002:0000b1f8       $unwind$??$type_case_integer_parse_into_buffer@_K@?$output_processor@_WV?$stream_output_adapter@_W@__crt_stdio_output@@V?$standard_base@_WV?$stream_output_adapter@_W@__crt_stdio_output@@@2@@__crt_stdio_output@@AEAAX_KI_N@Z 000000018002b1f8     libucrt:output.obj
 0002:0000b1f8       $unwind$??$type_case_integer_parse_into_buffer@I@?$output_processor@_WV?$string_output_adapter@_W@__crt_stdio_output@@V?$standard_base@_WV?$string_output_adapter@_W@__crt_stdio_output@@@2@@__crt_stdio_output@@AEAAXII_N@Z 000000018002b1f8     libucrt:output.obj
 0002:0000b1f8       $unwind$??$type_case_integer_parse_into_buffer@I@?$output_processor@_WV?$stream_output_adapter@_W@__crt_stdio_output@@V?$standard_base@_WV?$stream_output_adapter@_W@__crt_stdio_output@@@2@@__crt_stdio_output@@AEAAXII_N@Z 000000018002b1f8     libucrt:output.obj
 0002:0000b1f8       $unwind$??$type_case_integer_parse_into_buffer@_K@?$output_processor@_WV?$string_output_adapter@_W@__crt_stdio_output@@V?$standard_base@_WV?$string_output_adapter@_W@__crt_stdio_output@@@2@@__crt_stdio_output@@AEAAX_KI_N@Z 000000018002b1f8     libucrt:output.obj
 0002:0000b200       $unwind$??$?RV<lambda_a62c933ada0517137acf5807a1eeac1f>@@AEAV<lambda_a31071773b9a94e445cbd5d04ef99106>@@V<lambda_56065050dbf3ada7e59a83db45153de3>@@@?$__crt_seh_guarded_call@H@@QEAAH$$QEAV<lambda_a62c933ada0517137acf5807a1eeac1f>@@AEAV<lambda_a31071773b9a94e445cbd5d04ef99106>@@$$QEAV<lambda_56065050dbf3ada7e59a83db45153de3>@@@Z 000000018002b200     libucrt:output.obj
 0002:0000b224       $unwind$??$?RV<lambda_0d412022a4b28cc8a401ea49574e8ae6>@@AEAV<lambda_a775ed57af18ba8e4d5dc780aa9068fe>@@V<lambda_975a71a6baa488a08f4e15f6b0339b9e>@@@?$__crt_seh_guarded_call@H@@QEAAH$$QEAV<lambda_0d412022a4b28cc8a401ea49574e8ae6>@@AEAV<lambda_a775ed57af18ba8e4d5dc780aa9068fe>@@$$QEAV<lambda_975a71a6baa488a08f4e15f6b0339b9e>@@@Z 000000018002b224     libucrt:output.obj
 0002:0000b248       $unwind$_query_new_handler 000000018002b248     libucrt:new_handler.obj
 0002:0000b268       $unwind$?common_exit@@YAXHW4_crt_exit_cleanup_mode@@W4_crt_exit_return_mode@@@Z 000000018002b268     libucrt:exit.obj
 0002:0000b274       $unwind$??R<lambda_6e4b09c48022b2350581041d5f6b0c4c>@@QEBA@XZ 000000018002b274     libucrt:exit.obj
 0002:0000b294       $unwind$??$?RV<lambda_d80eeec6fff315bfe5c115232f3240e3>@@AEAV<lambda_6e4b09c48022b2350581041d5f6b0c4c>@@V<lambda_2358e3775559c9db80273638284d5e45>@@@?$__crt_seh_guarded_call@X@@QEAAX$$QEAV<lambda_d80eeec6fff315bfe5c115232f3240e3>@@AEAV<lambda_6e4b09c48022b2350581041d5f6b0c4c>@@$$QEAV<lambda_2358e3775559c9db80273638284d5e45>@@@Z 000000018002b294     libucrt:exit.obj
 0002:0000b2b8       $unwind$_configure_narrow_argv 000000018002b2b8     libucrt:argv_parsing.obj
 0002:0000b2cc       $unwind$??$free_environment@_W@@YAXQEAPEA_W@Z 000000018002b2cc     libucrt:environment_initialization.obj
 0002:0000b2cc       $unwind$??$free_environment@D@@YAXQEAPEAD@Z 000000018002b2cc     libucrt:environment_initialization.obj
 0002:0000b2d8       $unwind$??$create_environment@D@@YAQEAPEADQEAD@Z 000000018002b2d8     libucrt:environment_initialization.obj
 0002:0000b2f0       $unwind$_execute_onexit_table 000000018002b2f0     libucrt:onexit.obj
 0002:0000b2f8       $unwind$??$?RV<lambda_7777bce6b2f8c936911f934f8298dc43>@@AEAV<lambda_f03950bc5685219e0bcd2087efbe011e>@@V<lambda_3883c3dff614d5e0c5f61bb1ac94921c>@@@?$__crt_seh_guarded_call@H@@QEAAH$$QEAV<lambda_7777bce6b2f8c936911f934f8298dc43>@@AEAV<lambda_f03950bc5685219e0bcd2087efbe011e>@@$$QEAV<lambda_3883c3dff614d5e0c5f61bb1ac94921c>@@@Z 000000018002b2f8     libucrt:onexit.obj
 0002:0000b31c       $unwind$terminate          000000018002b31c     libucrt:terminate.obj
 0002:0000b33c       $unwind$??$parse_integer@KV?$c_string_character_source@D@__crt_strtox@@@__crt_strtox@@YAKQEAU__crt_locale_pointers@@V?$c_string_character_source@D@0@H_N@Z 000000018002b33c     libucrt:atox.obj
 0002:0000b354       $unwind$??$parse_integer@KV?$c_string_character_source@_W@__crt_strtox@@@__crt_strtox@@YAKQEAU__crt_locale_pointers@@V?$c_string_character_source@_W@0@H_N@Z 000000018002b354     libucrt:atox.obj
 0002:0000b370       $xdatasym                  000000018002b370     libucrt:strncmp.obj
 0002:0000b374       $unwind$_free_base         000000018002b374     libucrt:free_base.obj
 0002:0000b374       $unwind$?destroy_fls@@YAXPEAX@Z 000000018002b374     libucrt:per_thread_data.obj
 0002:0000b374       $unwind$__acrt_locale_free_numeric 000000018002b374     libucrt:initnum.obj
 0002:0000b374       $unwind$__acrt_locale_free_lc_time_if_unreferenced 000000018002b374     libucrt:locale_refcounting.obj
 0002:0000b37c       $unwind$?_mbstowcs_l_helper@@YA_KPEA_WPEBD_KPEAU__crt_locale_pointers@@@Z 000000018002b37c     libucrt:mbstowcs.obj
 0002:0000b394       $unwind$?construct_ptd_array@@YAXQEAU__acrt_ptd@@@Z 000000018002b394     libucrt:per_thread_data.obj
 0002:0000b39c       $unwind$?destroy_ptd_array@@YAXQEAU__acrt_ptd@@@Z 000000018002b39c     libucrt:per_thread_data.obj
 0002:0000b3a4       $unwind$??$?RV<lambda_0ae27a3a962d80f24befdcbee591983d>@@AEAV<lambda_8d0ee55de4b1038c4002e0adecdf1839>@@V<lambda_dc504788e8f1664fe9b84e20bfb512f2>@@@?$__crt_seh_guarded_call@X@@QEAAX$$QEAV<lambda_0ae27a3a962d80f24befdcbee591983d>@@AEAV<lambda_8d0ee55de4b1038c4002e0adecdf1839>@@$$QEAV<lambda_dc504788e8f1664fe9b84e20bfb512f2>@@@Z 000000018002b3a4     libucrt:per_thread_data.obj
 0002:0000b3c8       $unwind$??$?RV<lambda_aa87e3671a710a21b5dc78c0bdf72e11>@@AEAV<lambda_92619d2358a28f41a33ba319515a20b9>@@V<lambda_6992ecaafeb10aed2b74cb1fae11a551>@@@?$__crt_seh_guarded_call@X@@QEAAX$$QEAV<lambda_aa87e3671a710a21b5dc78c0bdf72e11>@@AEAV<lambda_92619d2358a28f41a33ba319515a20b9>@@$$QEAV<lambda_6992ecaafeb10aed2b74cb1fae11a551>@@@Z 000000018002b3c8     libucrt:per_thread_data.obj
 0002:0000b3ec       $unwind$??$?RV<lambda_f2e299630e499de9f9a165e60fcd3db5>@@AEAV<lambda_2ae9d31cdba2644fcbeaf08da7c24588>@@V<lambda_40d01ff24d0e7b3814fdbdcee8eab3c7>@@@?$__crt_seh_guarded_call@X@@QEAAX$$QEAV<lambda_f2e299630e499de9f9a165e60fcd3db5>@@AEAV<lambda_2ae9d31cdba2644fcbeaf08da7c24588>@@$$QEAV<lambda_40d01ff24d0e7b3814fdbdcee8eab3c7>@@@Z 000000018002b3ec     libucrt:per_thread_data.obj
 0002:0000b410       $unwind$??$?RV<lambda_2d41944a1d46af3157314b8a01080d33>@@AEAV<lambda_8f455de75cd7d7f24b4096f044d8b9e6>@@V<lambda_aa500f224e6afead328df44964fe2772>@@@?$__crt_seh_guarded_call@X@@QEAAX$$QEAV<lambda_2d41944a1d46af3157314b8a01080d33>@@AEAV<lambda_8f455de75cd7d7f24b4096f044d8b9e6>@@$$QEAV<lambda_aa500f224e6afead328df44964fe2772>@@@Z 000000018002b410     libucrt:per_thread_data.obj
 0002:0000b434       $unwind$__acrt_GetModuleFileNameA 000000018002b434     libucrt:getmodulefilenamea.obj
 0002:0000b44c       $unwind$?common_flush_all@@YAH_N@Z 000000018002b44c     libucrt:fflush.obj
 0002:0000b454       $unwind$??$?RV<lambda_842d9ff0dc9ef11c61343bbaebe7f885>@@AEAV<lambda_c5860995281e5c4ce005b3de8f5874ee>@@V<lambda_d90129c13df834fdcbf8d2b88dafcf2d>@@@?$__crt_seh_guarded_call@X@@QEAAX$$QEAV<lambda_842d9ff0dc9ef11c61343bbaebe7f885>@@AEAV<lambda_c5860995281e5c4ce005b3de8f5874ee>@@$$QEAV<lambda_d90129c13df834fdcbf8d2b88dafcf2d>@@@Z 000000018002b454     libucrt:fflush.obj
 0002:0000b478       $unwind$??$?RV<lambda_886d6c58226a84441f68b9f2b8217b83>@@AEAV<lambda_ab61a845afdef5b7c387490eaf3616ee>@@V<lambda_f7f22ab5edc0698d5f6905b0d3f44752>@@@?$__crt_seh_guarded_call@X@@QEAAX$$QEAV<lambda_886d6c58226a84441f68b9f2b8217b83>@@AEAV<lambda_ab61a845afdef5b7c387490eaf3616ee>@@$$QEAV<lambda_f7f22ab5edc0698d5f6905b0d3f44752>@@@Z 000000018002b478     libucrt:fflush.obj
 0002:0000b4a0       $unwind$??$?RV<lambda_c376a267cfb53b6959b3b692ec76b120>@@AEAV<lambda_9a32fed5bf61b6b509b2d3f6003082a1>@@V<lambda_572fbb9fa0ab338edf41edfd4b5fcc8d>@@@?$__crt_seh_guarded_call@H@@QEAAH$$QEAV<lambda_c376a267cfb53b6959b3b692ec76b120>@@AEAV<lambda_9a32fed5bf61b6b509b2d3f6003082a1>@@$$QEAV<lambda_572fbb9fa0ab338edf41edfd4b5fcc8d>@@@Z 000000018002b4a0     libucrt:fflush.obj
 0002:0000b4c4       $unwind$setvbuf            000000018002b4c4     libucrt:setvbuf.obj
 0002:0000b4cc       $unwind$??$?RV<lambda_84ec643ea9557e2f7dc01bb0e9624395>@@AEAV<lambda_ca71763b3c0644891230e4f79ea54fa6>@@V<lambda_439a761618c59b0600e24586724d733b>@@@?$__crt_seh_guarded_call@H@@QEAAH$$QEAV<lambda_84ec643ea9557e2f7dc01bb0e9624395>@@AEAV<lambda_ca71763b3c0644891230e4f79ea54fa6>@@$$QEAV<lambda_439a761618c59b0600e24586724d733b>@@@Z 000000018002b4cc     libucrt:setvbuf.obj
 0002:0000b4f0       $unwind$__acrt_get_sigabrt_handler 000000018002b4f0     libucrt:signal.obj
 0002:0000b4f0       $unwind$__acrt_uninitialize_locale 000000018002b4f0     libucrt:wsetlocale.obj
 0002:0000b4f8       $unwind$raise              000000018002b4f8     libucrt:signal.obj
 0002:0000b534       $unwind$??$?RV<lambda_450d765d439847d4c735a33c368b5fc0>@@AEAV<lambda_44731a7d0e6d81c3e6aa82d741081786>@@V<lambda_601a2a7da3b7a96e9554ac7215c4b07c>@@@?$__crt_seh_guarded_call@P6AXH@Z@@QEAAP6AXH@Z$$QEAV<lambda_450d765d439847d4c735a33c368b5fc0>@@AEAV<lambda_44731a7d0e6d81c3e6aa82d741081786>@@$$QEAV<lambda_601a2a7da3b7a96e9554ac7215c4b07c>@@@Z 000000018002b534     libucrt:signal.obj
 0002:0000b558       $unwind$_tolower_l         000000018002b558     libucrt:tolower_toupper.obj
 0002:0000b568       $unwind$??$?RV<lambda_410d79af7f07d98d83a3f525b3859a53>@@AEAV<lambda_3e16ef9562a7dcce91392c22ab16ea36>@@V<lambda_38119f0e861e05405d8a144b9b982f0a>@@@?$__crt_seh_guarded_call@X@@QEAAX$$QEAV<lambda_410d79af7f07d98d83a3f525b3859a53>@@AEAV<lambda_3e16ef9562a7dcce91392c22ab16ea36>@@$$QEAV<lambda_38119f0e861e05405d8a144b9b982f0a>@@@Z 000000018002b568     libucrt:wsetlocale.obj
 0002:0000b590       $unwind$_mbtowc_l          000000018002b590     libucrt:mbtowc.obj
 0002:0000b590       $unwind$__acrt_LCMapStringEx 000000018002b590     libucrt:winapi_thunks.obj
 0002:0000b590       $unwind$?fp_format_e@@YAHQEBNQEAD_K12H_NIQEAU__crt_locale_pointers@@@Z 000000018002b590     libucrt:cvt.obj
 0002:0000b5a4       $unwind$__acrt_is_interactive 000000018002b5a4     libucrt:winapi_thunks.obj
 0002:0000b5b8       $unwind$_fcloseall         000000018002b5b8     libucrt:closeall.obj
 0002:0000b5dc       $unwind$__acrt_initialize_lowio 000000018002b5dc     libucrt:ioinit.obj
 0002:0000b5fc       $unwind$?initialize_inherited_file_handles_nolock@@YAXXZ 000000018002b5fc     libucrt:ioinit.obj
 0002:0000b618       $unwind$_wctomb_s_l        000000018002b618     libucrt:wctomb.obj
 0002:0000b628       $unwind$__acrt_fp_format   000000018002b628     libucrt:cvt.obj
 0002:0000b63c       $unwind$?fp_format_nan_or_infinity@@YAHW4__acrt_fp_class@@_NPEAD_K1@Z 000000018002b63c     libucrt:cvt.obj
 0002:0000b650       $unwind$?fp_format_e_internal@@YAHQEAD_KH_NIQEAU_strflt@@2QEAU__crt_locale_pointers@@@Z 000000018002b650     libucrt:cvt.obj
 0002:0000b668       $unwind$?fp_format_a@@YAHQEBNPEAD_KQEAD2H_NIQEAU__crt_locale_pointers@@@Z 000000018002b668     libucrt:cvt.obj
 0002:0000b684       $unwind$__dcrt_get_narrow_environment_from_os 000000018002b684     libucrt:get_environment_from_os.obj
 0002:0000b684       $unwind$?fp_format_f_internal@@YAHQEAD_KHQEAU_strflt@@_NQEAU__crt_locale_pointers@@@Z 000000018002b684     libucrt:cvt.obj
 0002:0000b69c       $unwind$?fp_format_g@@YAHQEBNQEAD_K12H_NIQEAU__crt_locale_pointers@@@Z 000000018002b69c     libucrt:cvt.obj
 0002:0000b6b0       $unwind$_fputwc_nolock     000000018002b6b0     libucrt:fputwc.obj
 0002:0000b6cc       $unwind$??$common_expand_argv_wildcards@D@@YAHQEAPEADQEAPEAPEAD@Z 000000018002b6cc     libucrt:argv_wildcards.obj
 0002:0000b6e4       $unwind$??$copy_and_add_argument_to_buffer@D@@YAHQEBD0_KAEAV?$argument_list@D@?A0x5f5c8891@@@Z 000000018002b6e4     libucrt:argv_wildcards.obj
 0002:0000b700       $unwind$??$expand_argument_wildcards@D@@YAHQEAD0AEAV?$argument_list@D@?A0x5f5c8891@@@Z 000000018002b700     libucrt:argv_wildcards.obj
 0002:0000b720       $unwind$_setmbcp_nolock    000000018002b720     libucrt:mbctype.obj
 0002:0000b740       $unwind$?update_thread_multibyte_data_internal@@YAPEAU__crt_multibyte_data@@QEAU__acrt_ptd@@QEAPEAU1@@Z 000000018002b740     libucrt:mbctype.obj
 0002:0000b768       $unwind$?setmbcp_internal@@YAHH_NQEAU__acrt_ptd@@QEAPEAU__crt_multibyte_data@@@Z 000000018002b768     libucrt:mbctype.obj
 0002:0000b778       $unwind$?setSBUpLow@@YAXPEAU__crt_multibyte_data@@@Z 000000018002b778     libucrt:mbctype.obj
 0002:0000b794       $unwind$??$?RV<lambda_efdfa57d1f175319df784efa44bb7b81>@@AEAV<lambda_5f0a4c1567f8adc6734073e5d1e1b35c>@@V<lambda_2e8a7d3640ea6ccb4c2413664c2db6fd>@@@?$__crt_seh_guarded_call@X@@QEAAX$$QEAV<lambda_efdfa57d1f175319df784efa44bb7b81>@@AEAV<lambda_5f0a4c1567f8adc6734073e5d1e1b35c>@@$$QEAV<lambda_2e8a7d3640ea6ccb4c2413664c2db6fd>@@@Z 000000018002b794     libucrt:mbctype.obj
 0002:0000b7b8       $unwind$__GSHandlerCheckCommon 000000018002b7b8     LIBCMT:_gshandler_.obj
 0002:0000b7b8       $unwind$__acrt_WideCharToMultiByte 000000018002b7b8     libucrt:widechartomultibyte.obj
 0002:0000b7c0       $unwind$iswctype           000000018002b7c0     libucrt:iswctype.obj
 0002:0000b7cc       $unwind$_isctype_l         000000018002b7cc     libucrt:isctype.obj
 0002:0000b7e4       $unwind$?__mbsrtowcs_utf8@__crt_mbstring@@YA_KPEA_WPEAPEBD_KPEAU_Mbstatet@@@Z 000000018002b7e4     libucrt:mbrtowc.obj
 0002:0000b7fc       $unwind$__acrt_update_thread_locale_data 000000018002b7fc     libucrt:locale_refcounting.obj
 0002:0000b820       $unwind$_commit            000000018002b820     libucrt:commit.obj
 0002:0000b820       $unwind$_close             000000018002b820     libucrt:close.obj
 0002:0000b828       $unwind$??$?RV<lambda_a37b2b86f63e897a80ea819b0eb08c01>@@AEAV<lambda_38ce7e780aa69e748d6df282ebc68efe>@@V<lambda_99fb1378e971ab6e7edea83e3a7a83a2>@@@?$__crt_seh_guarded_call@H@@QEAAH$$QEAV<lambda_a37b2b86f63e897a80ea819b0eb08c01>@@AEAV<lambda_38ce7e780aa69e748d6df282ebc68efe>@@$$QEAV<lambda_99fb1378e971ab6e7edea83e3a7a83a2>@@@Z 000000018002b828     libucrt:commit.obj
 0002:0000b84c       $unwind$_write             000000018002b84c     libucrt:write.obj
 0002:0000b87c       $unwind$_write_nolock      000000018002b87c     libucrt:write.obj
 0002:0000b894       $unwind$?write_double_translated_ansi_nolock@@YA?AUwrite_result@?A0x17268360@@HQEBDI@Z 000000018002b894     libucrt:write.obj
 0002:0000b8b4       $unwind$?write_text_ansi_nolock@@YA?AUwrite_result@?A0x17268360@@HQEBDI@Z 000000018002b8b4     libucrt:write.obj
 0002:0000b8b4       $unwind$?write_text_utf16le_nolock@@YA?AUwrite_result@?A0x17268360@@HQEBDI@Z 000000018002b8b4     libucrt:write.obj
 0002:0000b8d4       $unwind$?write_text_utf8_nolock@@YA?AUwrite_result@?A0x17268360@@HQEBDI@Z 000000018002b8d4     libucrt:write.obj
 0002:0000b8f8       $unwind$__acrt_LCMapStringA 000000018002b8f8     libucrt:lcmapstringa.obj
 0002:0000b908       $unwind$?__acrt_LCMapStringA_stat@@YAHPEAU__crt_locale_pointers@@PEB_WKPEBDHPEADHHH@Z 000000018002b908     libucrt:lcmapstringa.obj
 0002:0000b930       $unwind$__acrt_locale_free_monetary 000000018002b930     libucrt:initmon.obj
 0002:0000b938       $unwind$__acrt_locale_free_time 000000018002b938     libucrt:inittime.obj
 0002:0000b948       $unwind$__acrt_GetStringTypeA 000000018002b948     libucrt:getstringtypea.obj
 0002:0000b970       $unwind$?GetTableIndexFromLocaleName@@YAHPEB_W@Z 000000018002b970     libucrt:lcidtoname_downlevel.obj
 0002:0000b988       $unwind$fclose             000000018002b988     libucrt:fclose.obj
 0002:0000b9ac       $unwind$__acrt_lowio_destroy_handle_array 000000018002b9ac     libucrt:osfinfo.obj
 0002:0000b9bc       $unwind$__acrt_lowio_ensure_fh_exists 000000018002b9bc     libucrt:osfinfo.obj
 0002:0000b9e8       $unwind$__acrt_fltout      000000018002b9e8     libucrt:cfout.obj
 0002:0000ba08       $unwind$?divide@__crt_strtox@@YA_KAEAUbig_integer@1@AEBU21@@Z 000000018002ba08     libucrt:cfout.obj
 0002:0000ba14       $chain$0$?divide@__crt_strtox@@YA_KAEAUbig_integer@1@AEBU21@@Z 000000018002ba14     libucrt:cfout.obj
 0002:0000ba28       $chain$6$?divide@__crt_strtox@@YA_KAEAUbig_integer@1@AEBU21@@Z 000000018002ba28     libucrt:cfout.obj
 0002:0000ba4c       $chain$7$?divide@__crt_strtox@@YA_KAEAUbig_integer@1@AEBU21@@Z 000000018002ba4c     libucrt:cfout.obj
 0002:0000ba60       $chain$8$?divide@__crt_strtox@@YA_KAEAUbig_integer@1@AEBU21@@Z 000000018002ba60     libucrt:cfout.obj
 0002:0000ba70       $unwind$??$write_buffer_nolock@D@@YA_NDV__crt_stdio_stream@@@Z 000000018002ba70     libucrt:_flsbuf.obj
 0002:0000ba80       $unwind$??$write_buffer_nolock@_W@@YA_N_WV__crt_stdio_stream@@@Z 000000018002ba80     libucrt:_flsbuf.obj
 0002:0000ba90       $unwind$qsort              000000018002ba90     libucrt:qsort.obj
 0002:0000baa8       $chain$4$qsort             000000018002baa8     libucrt:qsort.obj
 0002:0000bacc       $chain$5$qsort             000000018002bacc     libucrt:qsort.obj
 0002:0000badc       $unwind$strpbrk            000000018002badc     libucrt:strpbrk.obj
 0002:0000baec       $unwind$fallbackMethod     000000018002baec     libucrt:strpbrk.obj
 0002:0000bafc       $unwind$__acrt_FindFirstFileExA 000000018002bafc     libucrt:findfirstfileexa.obj
 0002:0000bb0c       $unwind$??$__acrt_convert_wcs_mbs@D_W$$A6A_KPEA_WPEBD_KPEAU__crt_locale_pointers@@@ZU__crt_win32_buffer_internal_dynamic_resizing@@@@YAHQEBDAEAV?$__crt_win32_buffer@_WU__crt_win32_buffer_internal_dynamic_resizing@@@@A6A_KPEA_WPEBD_KPEAU__crt_locale_pointers@@@Z5@Z 000000018002bb0c     libucrt:findfirstfileexa.obj
 0002:0000bb24       $unwind$__acrt_FindNextFileA 000000018002bb24     libucrt:findnextfilea.obj
 0002:0000bb40       $unwind$_mbsdec_l          000000018002bb40     libucrt:mbsdec.obj
 0002:0000bb4c       $unwind$?__mbrtoc32_utf8@__crt_mbstring@@YA_KPEA_UPEBD_KPEAU_Mbstatet@@@Z 000000018002bb4c     libucrt:mbrtoc32.obj
 0002:0000bb68       $unwind$??$common_lseek@_J@@YA_JH_JH@Z 000000018002bb68     libucrt:lseek.obj
 0002:0000bb98       $unwind$_putwch_nolock     000000018002bb98     libucrt:putwch.obj
 0002:0000bba0       $unwind$??$?RV<lambda_751a882b2c74d4b022dec766aa51a29a>@@AEAV<lambda_628dfdc04ba53c8bfc02c9951375f3f5>@@V<lambda_f6c7be5f7998530c34de24c7437d6b54>@@@?$__crt_seh_guarded_call@H@@QEAAH$$QEAV<lambda_751a882b2c74d4b022dec766aa51a29a>@@AEAV<lambda_628dfdc04ba53c8bfc02c9951375f3f5>@@$$QEAV<lambda_f6c7be5f7998530c34de24c7437d6b54>@@@Z 000000018002bba0     libucrt:close.obj
 0002:0000bbc8       $xdatasym                  000000018002bbc8     libucrt:log10.obj
 0002:0000bbd4       $unwind$?_wcstombs_l_helper@@YA_KPEADPEB_W_KPEAU__crt_locale_pointers@@@Z 000000018002bbd4     libucrt:wcstombs.obj
 0002:0000bbf8       $stateUnwindMap$?_wcstombs_l_helper@@YA_KPEADPEB_W_KPEAU__crt_locale_pointers@@@Z 000000018002bbf8     libucrt:wcstombs.obj
 0002:0000bc00       $ip2state$?_wcstombs_l_helper@@YA_KPEADPEB_W_KPEAU__crt_locale_pointers@@@Z 000000018002bc00     libucrt:wcstombs.obj
 0002:0000bc18       $unwind$__dcrt_write_console 000000018002bc18     libucrt:initcon.obj
 0002:0000bc2c       $unwind$__acrt_fenv_set_control 000000018002bc2c     libucrt:_fenvutils.obj
 0002:0000bc3c       $unwind$_call_matherr      000000018002bc3c     libucrt:libm_error.obj
 0002:0000bc44       $unwind$_handle_error      000000018002bc44     libucrt:libm_error.obj
 0002:0000bc64       $unwind$__acrt_initialize_fma3 000000018002bc64     libucrt:fma3_available.obj
 0002:0000bc6c       $unwind$_log_special_common 000000018002bc6c     libucrt:log_special.obj
 0002:0000bc78       $unwind$?__wcsrtombs_utf8@__crt_mbstring@@YA_KPEADPEAPEB_W_KPEAU_Mbstatet@@@Z 000000018002bc78     libucrt:wcrtomb.obj
 0002:0000bc98       $xdatasym                  000000018002bc98     libucrt:fpsr.obj
 0002:0000bca0       $unwind$_raise_exc_ex      000000018002bca0     libucrt:fpexcept.obj
 0002:0000bcb4       $unwind$_ctrlfp            000000018002bcb4     libucrt:fpctrl.obj
 0002:0000bcdc       $unwind$?DloadObtainSection@@YAPEAXPEAK0@Z 000000018002bcdc     DelayImp:delayhlp.obj
 0002:0000bcec       $unwind$?DloadMakePermanentImageCommit@@YAXPEAX_K@Z 000000018002bcec     DelayImp:delayhlp.obj
 0002:0000bcf8       $unwind$?DloadProtectSection@@YAXKPEAK@Z 000000018002bcf8     DelayImp:delayhlp.obj
 0002:0000bd08       $unwind$__delayLoadHelper2 000000018002bd08     DelayImp:delayhlp.obj
 0002:0000bd20       $unwind$_IsNonwritableInCurrentImage 000000018002bd20     LIBCMT:pesect.obj
 0002:0000bd48       $xdatasym                  000000018002bd48     LIBCMT:_chkstk_.obj
 0002:0000bd50       $xdatasym                  000000018002bd50     libvcruntime:memcmp.obj
 0002:0000bd54       $unwind$strrchr            000000018002bd54     libvcruntime:strrchr.obj
 0002:0000cd50       .edata                     000000018002cd50     scrypt.exp
 0002:0000cd78       rgpv                       000000018002cd78     scrypt.exp
 0002:0000cd7c       rgszName                   000000018002cd7c     scrypt.exp
 0002:0000cd80       rgwOrd                     000000018002cd80     scrypt.exp
 0002:0000cd82       szName                     000000018002cd82     scrypt.exp
 0002:0000cd8e       $N00001                    000000018002cd8e     scrypt.exp
 0002:0000d044       .idata$6                   000000018002d044     kernel32:KERNEL32.dll
 0003:00000030       ?__vcrt_flsindex@@3KA      000000018002e030     libvcruntime:per_thread_data.obj
 0003:00000040       ?errno_no_memory@@3HA      000000018002e040     libucrt:errno.obj
 0003:00000044       ?doserrno_no_memory@@3KA   000000018002e044     libucrt:errno.obj
 0003:00000160       ?__acrt_flsindex@@3KA      000000018002e160     libucrt:per_thread_data.obj
 0003:00000320       ?__rgctypeflag@@3PADA      000000018002e320     libucrt:mbctype.obj
 0003:00000330       ?__rgcode_page_info@@3PAUcode_page_info@@A 000000018002e330     libucrt:mbctype.obj
 0003:00000650       _mbctypes                  000000018002e650     libucrt:mbctype.obj
 0003:00000760       _mbcasemaps                000000018002e760     libucrt:mbctype.obj
 0003:00000910       ?__dcrt_lowio_console_output_handle@@3PEAXEA 000000018002e910     libucrt:initcon.obj
 0003:00000920       ?dazSupported@?1??_ctrlfp@@9@9 000000018002e920     libucrt:fpctrl.obj
 0003:00000950       _module                    000000018002e950     scrypt_node.obj
 0003:00000990       PAD                        000000018002e990     scrypt_lib:sha256.obj
 0003:000009d0       testcase                   000000018002e9d0     scrypt_lib:crypto_scrypt.obj
 0003:00000cb8       ?__proc_attached@@3HA      000000018002ecb8     LIBCMT:dll_dllmain.obj
 0003:00000cc4       ?module_local_atexit_table_initialized@@3_NA 000000018002ecc4     LIBCMT:utility.obj
 0003:00000cd0       ?module_local_atexit_table@@3U_onexit_table_t@@A 000000018002ecd0     LIBCMT:utility.obj
 0003:00000ce8       ?module_local_at_quick_exit_table@@3U_onexit_table_t@@A 000000018002ece8     LIBCMT:utility.obj
 0003:00000d00       ?is_initialized_as_dll@@3_NA 000000018002ed00     LIBCMT:utility.obj
 0003:00000d10       GS_ExceptionRecord         000000018002ed10     LIBCMT:gs_report.obj
 0003:00000db0       GS_ContextRecord           000000018002edb0     LIBCMT:gs_report.obj
 0003:000012b0       ?__vcrt_startup_thread_ptd@@3U__vcrt_ptd@@A 000000018002f2b0     libvcruntime:per_thread_data.obj
 0003:00001330       __vcrt_lock_table          000000018002f330     libvcruntime:locks.obj
 0003:00001358       __vcrt_locks_initialized   000000018002f358     libvcruntime:locks.obj
 0003:00001360       ?module_handles@@3PAPEAUHINSTANCE__@@A 000000018002f360     libvcruntime:winapi_downlevel.obj
 0003:00001378       ?encoded_function_pointers@@3PAPEAXA 000000018002f378     libvcruntime:winapi_downlevel.obj
 0003:000013e0       ?heap@@3V_HeapManager@@A   000000018002f3e0     libvcruntime:undname.obj
 0003:00001408       ?__acrt_invalid_parameter_handler@@3V?$dual_state_global@P6AXPEB_W00I_K@Z@__crt_state_management@@A 000000018002f408     libucrt:invalid_parameter.obj
 0003:00001428       ?__acrt_new_handler@@3V?$dual_state_global@P6AH_K@Z@__crt_state_management@@A 000000018002f428     libucrt:new_handler.obj
 0003:00001430       ?c_termination_complete@@3JA 000000018002f430     libucrt:exit.obj
 0003:00001438       ?thread_local_exit_callback_func@@3P6AXPEAXK0@ZEA 000000018002f438     libucrt:exit.obj
 0003:00001450       ?program_name@?1???$common_configure_argv@D@@YAHW4_crt_argv_mode@@@Z@4PADA 000000018002f450     libucrt:argv_parsing.obj
 0003:000015a8       ?__acrt_app_type@@3W4_crt_app_type@@A 000000018002f5a8     libucrt:report_runtime_error.obj
 0003:000015ac       __acrt_error_mode          000000018002f5ac     libucrt:set_error_mode.obj
 0003:000015b0       ?ctrlc_action@@3V?$dual_state_global@P6AXH@Z@__crt_state_management@@A 000000018002f5b0     libucrt:signal.obj
 0003:000015b8       ?ctrlbreak_action@@3V?$dual_state_global@P6AXH@Z@__crt_state_management@@A 000000018002f5b8     libucrt:signal.obj
 0003:000015c0       ?abort_action@@3V?$dual_state_global@P6AXH@Z@__crt_state_management@@A 000000018002f5c0     libucrt:signal.obj
 0003:000015c8       ?term_action@@3V?$dual_state_global@P6AXH@Z@__crt_state_management@@A 000000018002f5c8     libucrt:signal.obj
 0003:000015e0       ?module_handles@@3PAPEAUHINSTANCE__@@A 000000018002f5e0     libucrt:winapi_thunks.obj
 0003:00001680       ?encoded_function_pointers@@3PAPEAXA 000000018002f680     libucrt:winapi_thunks.obj
 0003:00001b98       ?internal_state@?1??_mbtowc_l@@9@4U_Mbstatet@@A 000000018002fb98     libucrt:mbtowc.obj
 0003:00001ba0       ?enable_percent_n@@3_KA    000000018002fba0     libucrt:printf_count_output.obj
 0003:00001bc0       ?__acrt_lock_table@@3PAU_RTL_CRITICAL_SECTION@@A 000000018002fbc0     libucrt:locks.obj
 0003:00001df0       ?__acrt_locks_initialized@@3IA 000000018002fdf0     libucrt:locks.obj
 0003:00001df4       ?state_cache@?1???$get_cached_win_policy@Udeveloper_information_policy_properties@?1??__acrt_get_developer_information_policy@@YA?AW4developer_information_policy@@XZ@@@YA?AW4developer_information_policy@@W4AppPolicyShowDeveloperDiagnostic@@@Z@4JA 000000018002fdf4     libucrt:win_policies.obj
 0003:00001df8       ?state_cache@?1???$get_cached_win_policy@Uwindowing_model_policy_properties@?1??__acrt_get_windowing_model_policy@@YA?AW4windowing_model_policy@@XZ@@@YA?AW4windowing_model_policy@@W4AppPolicyWindowingModel@@@Z@4JA 000000018002fdf8     libucrt:win_policies.obj
 0003:00001e18       ?fSystemSet@@3HA           000000018002fe18     libucrt:mbctype.obj
 0003:00001e1c       ?initialized@?1??__acrt_initialize_multibyte@@9@4_NA 000000018002fe1c     libucrt:mbctype.obj
 0003:00001e58       ?user_matherr@@3V?$dual_state_global@P6AHPEAU_exception@@@Z@__crt_state_management@@A 000000018002fe58     libucrt:matherr.obj
 0003:00001e60       ?__acrt_global_new_mode@@3V?$dual_state_global@J@__crt_state_management@@A 000000018002fe60     libucrt:new_mode.obj
 0003:00001e70       ?internal_pst@?1??__mbrtoc32_utf8@__crt_mbstring@@YA_KPEA_UPEBD_KPEAU_Mbstatet@@@Z@4U3@A 000000018002fe70     libucrt:mbrtoc32.obj
 0003:00001e80       ?internal_pst@?1??__c16rtomb_utf8@__crt_mbstring@@YA_KPEAD_SPEAU_Mbstatet@@@Z@4U3@A 000000018002fe80     libucrt:c16rtomb.obj
 0003:00001eb8       smix_func                  000000018002feb8     scrypt_lib:crypto_scrypt.obj
 0003:00001ec0       name                       000000018002fec0     scrypt_lib:warnp.obj
 0004:00000000       $pdata$?ScryptErrorDescr@?A0x85892d7a@@YAPEBDI@Z 0000000180030000     scrypt_common.obj
 0004:0000000c       $pdata$?ScryptError@NodeScrypt@@YA?AV?$Local@VValue@v8@@@v8@@I@Z 000000018003000c     scrypt_common.obj
 0004:00000018       $pdata$??1?$basic_string@DU?$char_traits@D@std@@V?$allocator@D@2@@std@@QEAA@XZ 0000000180030018     scrypt_common.obj
 0004:00000024       $pdata$??0?$basic_string@DU?$char_traits@D@std@@V?$allocator@D@2@@std@@QEAA@QEBD@Z 0000000180030024     scrypt_common.obj
 0004:00000030       $pdata$??$_Reallocate_grow_by@V<lambda_65e615be2a453ca0576c979606f46740>@@PEBD_K@?$basic_string@DU?$char_traits@D@std@@V?$allocator@D@2@@std@@QEAAAEAV01@_KV<lambda_65e615be2a453ca0576c979606f46740>@@PEBD_K@Z 0000000180030030     scrypt_common.obj
 0004:0000003c       $pdata$3$??$_Reallocate_grow_by@V<lambda_65e615be2a453ca0576c979606f46740>@@PEBD_K@?$basic_string@DU?$char_traits@D@std@@V?$allocator@D@2@@std@@QEAAAEAV01@_KV<lambda_65e615be2a453ca0576c979606f46740>@@PEBD_K@Z 000000018003003c     scrypt_common.obj
 0004:00000048       $pdata$5$??$_Reallocate_grow_by@V<lambda_65e615be2a453ca0576c979606f46740>@@PEBD_K@?$basic_string@DU?$char_traits@D@std@@V?$allocator@D@2@@std@@QEAAAEAV01@_KV<lambda_65e615be2a453ca0576c979606f46740>@@PEBD_K@Z 0000000180030048     scrypt_common.obj
 0004:00000054       $pdata$6$??$_Reallocate_grow_by@V<lambda_65e615be2a453ca0576c979606f46740>@@PEBD_K@?$basic_string@DU?$char_traits@D@std@@V?$allocator@D@2@@std@@QEAAAEAV01@_KV<lambda_65e615be2a453ca0576c979606f46740>@@PEBD_K@Z 0000000180030054     scrypt_common.obj
 0004:00000060       $pdata$?_Xlen@?$basic_string@DU?$char_traits@D@std@@V?$allocator@D@2@@std@@SAXXZ 0000000180030060     scrypt_common.obj
 0004:0000006c       $pdata$??$_Reallocate_grow_by@V<lambda_f3a66ab6a0570788f31503db83886f49>@@_KPEBD_K@?$basic_string@DU?$char_traits@D@std@@V?$allocator@D@2@@std@@QEAAAEAV01@_KV<lambda_f3a66ab6a0570788f31503db83886f49>@@_KPEBD2@Z 000000018003006c     scrypt_common.obj
 0004:00000078       $pdata$2$??$_Reallocate_grow_by@V<lambda_f3a66ab6a0570788f31503db83886f49>@@_KPEBD_K@?$basic_string@DU?$char_traits@D@std@@V?$allocator@D@2@@std@@QEAAAEAV01@_KV<lambda_f3a66ab6a0570788f31503db83886f49>@@_KPEBD2@Z 0000000180030078     scrypt_common.obj
 0004:00000084       $pdata$4$??$_Reallocate_grow_by@V<lambda_f3a66ab6a0570788f31503db83886f49>@@_KPEBD_K@?$basic_string@DU?$char_traits@D@std@@V?$allocator@D@2@@std@@QEAAAEAV01@_KV<lambda_f3a66ab6a0570788f31503db83886f49>@@_KPEBD2@Z 0000000180030084     scrypt_common.obj
 0004:00000090       $pdata$5$??$_Reallocate_grow_by@V<lambda_f3a66ab6a0570788f31503db83886f49>@@_KPEBD_K@?$basic_string@DU?$char_traits@D@std@@V?$allocator@D@2@@std@@QEAAAEAV01@_KV<lambda_f3a66ab6a0570788f31503db83886f49>@@_KPEBD2@Z 0000000180030090     scrypt_common.obj
 0004:0000009c       $pdata$?Call@Callback@Nan@@QEBA?AV?$Local@VValue@v8@@@v8@@HQEAV34@@Z 000000018003009c     scrypt_params_async.obj
 0004:000000a8       $pdata$??1AsyncWorker@Nan@@UEAA@XZ 00000001800300a8     scrypt_params_async.obj
 0004:000000b4       $pdata$?WorkComplete@AsyncWorker@Nan@@UEAAXXZ 00000001800300b4     scrypt_params_async.obj
 0004:000000c0       $pdata$?HandleOKCallback@AsyncWorker@Nan@@MEAAXXZ 00000001800300c0     scrypt_params_async.obj
 0004:000000cc       $pdata$?HandleErrorCallback@AsyncWorker@Nan@@MEAAXXZ 00000001800300cc     scrypt_params_async.obj
 0004:000000d8       $pdata$??_GAsyncWorker@Nan@@UEAAPEAXI@Z 00000001800300d8     scrypt_params_async.obj
 0004:000000e4       $pdata$??1?$Persistent@VObject@v8@@V?$NonCopyablePersistentTraits@VObject@v8@@@2@@Nan@@QEAA@XZ 00000001800300e4     scrypt_params_async.obj
 0004:000000f0       $pdata$?AsyncExecuteComplete@Nan@@YAXPEAUuv_work_s@@@Z 00000001800300f0     scrypt_params_async.obj
 0004:000000fc       $pdata$??0ScryptAsyncWorker@@QEAA@PEAVCallback@Nan@@@Z 00000001800300fc     scrypt_params_async.obj
 0004:00000108       $pdata$?HandleErrorCallback@ScryptAsyncWorker@@UEAAXXZ 0000000180030108     scrypt_params_async.obj
 0004:00000114       $pdata$?WorkComplete@ScryptAsyncWorker@@UEAAXXZ 0000000180030114     scrypt_params_async.obj
 0004:00000120       $pdata$??_GScryptAsyncWorker@@UEAAPEAXI@Z 0000000180030120     scrypt_params_async.obj
 0004:0000012c       $pdata$??_GScryptParamsAsyncWorker@@UEAAPEAXI@Z 000000018003012c     scrypt_params_async.obj
 0004:0000012c       $pdata$??_GScryptKDFAsyncWorker@@UEAAPEAXI@Z 000000018003012c     scrypt_kdf_async.obj
 0004:00000138       $pdata$?Execute@ScryptParamsAsyncWorker@@UEAAXXZ 0000000180030138     scrypt_params_async.obj
 0004:00000144       $pdata$?HandleOKCallback@ScryptParamsAsyncWorker@@UEAAXXZ 0000000180030144     scrypt_params_async.obj
 0004:00000150       $pdata$?params@@YAXAEBV?$FunctionCallbackInfo@VValue@v8@@@Nan@@@Z 0000000180030150     scrypt_params_async.obj
 0004:0000015c       $pdata$?paramsSync@@YAXAEBV?$FunctionCallbackInfo@VValue@v8@@@Nan@@@Z 000000018003015c     scrypt_params_sync.obj
 0004:00000168       $pdata$?SaveToPersistent@AsyncWorker@Nan@@QEAAXPEBDAEBV?$Local@VValue@v8@@@v8@@@Z 0000000180030168     scrypt_kdf_async.obj
 0004:00000174       $pdata$?GetFromPersistent@AsyncWorker@Nan@@QEBA?AV?$Local@VValue@v8@@@v8@@PEBD@Z 0000000180030174     scrypt_kdf_async.obj
 0004:00000180       $pdata$??0Params@NodeScrypt@@QEAA@AEBV?$Local@VObject@v8@@@v8@@@Z 0000000180030180     scrypt_kdf_async.obj
 0004:0000018c       $pdata$??0ScryptKDFAsyncWorker@@QEAA@AEBV?$FunctionCallbackInfo@VValue@v8@@@Nan@@@Z 000000018003018c     scrypt_kdf_async.obj
 0004:00000198       $pdata$?Execute@ScryptKDFAsyncWorker@@UEAAXXZ 0000000180030198     scrypt_kdf_async.obj
 0004:000001a4       $pdata$?HandleOKCallback@ScryptKDFAsyncWorker@@UEAAXXZ 00000001800301a4     scrypt_kdf_async.obj
 0004:000001b0       $pdata$?kdf@@YAXAEBV?$FunctionCallbackInfo@VValue@v8@@@Nan@@@Z 00000001800301b0     scrypt_kdf_async.obj
 0004:000001bc       $pdata$?kdfSync@@YAXAEBV?$FunctionCallbackInfo@VValue@v8@@@Nan@@@Z 00000001800301bc     scrypt_kdf_sync.obj
 0004:000001c8       $pdata$?kdfVerifySync@@YAXAEBV?$FunctionCallbackInfo@VValue@v8@@@Nan@@@Z 00000001800301c8     scrypt_kdf-verify_sync.obj
 0004:000001d4       $pdata$??0ScryptKDFVerifyAsyncWorker@@QEAA@AEBV?$FunctionCallbackInfo@VValue@v8@@@Nan@@@Z 00000001800301d4     scrypt_kdf-verify_async.obj
 0004:000001e0       $pdata$??_GScryptKDFVerifyAsyncWorker@@UEAAPEAXI@Z 00000001800301e0     scrypt_kdf-verify_async.obj
 0004:000001ec       $pdata$?Execute@ScryptKDFVerifyAsyncWorker@@UEAAXXZ 00000001800301ec     scrypt_kdf-verify_async.obj
 0004:000001f8       $pdata$?HandleOKCallback@ScryptKDFVerifyAsyncWorker@@UEAAXXZ 00000001800301f8     scrypt_kdf-verify_async.obj
 0004:00000204       $pdata$?kdfVerify@@YAXAEBV?$FunctionCallbackInfo@VValue@v8@@@Nan@@@Z 0000000180030204     scrypt_kdf-verify_async.obj
 0004:00000210       $pdata$?hashSync@@YAXAEBV?$FunctionCallbackInfo@VValue@v8@@@Nan@@@Z 0000000180030210     scrypt_hash_sync.obj
 0004:0000021c       $pdata$??0ScryptHashAsyncWorker@@QEAA@AEBV?$FunctionCallbackInfo@VValue@v8@@@Nan@@@Z 000000018003021c     scrypt_hash_async.obj
 0004:00000228       $pdata$??_GScryptHashAsyncWorker@@UEAAPEAXI@Z 0000000180030228     scrypt_hash_async.obj
 0004:00000234       $pdata$?Execute@ScryptHashAsyncWorker@@UEAAXXZ 0000000180030234     scrypt_hash_async.obj
 0004:00000240       $pdata$?HandleOKCallback@ScryptHashAsyncWorker@@UEAAXXZ 0000000180030240     scrypt_hash_async.obj
 0004:0000024c       $pdata$?hash@@YAXAEBV?$FunctionCallbackInfo@VValue@v8@@@Nan@@@Z 000000018003024c     scrypt_hash_async.obj
 0004:00000258       $pdata$?FunctionCallbackWrapper@imp@Nan@@YAXAEBV?$FunctionCallbackInfo@VValue@v8@@@v8@@@Z 0000000180030258     scrypt_node.obj
 0004:00000264       $pdata$?InitAll@@YAXV?$Local@VObject@v8@@@v8@@@Z 0000000180030264     scrypt_node.obj
 0004:00000270       $pdata$??$New@VFunctionTemplate@v8@@@Nan@@YA?AV?$Local@VFunctionTemplate@v8@@@v8@@P6AXAEBV?$FunctionCallbackInfo@VValue@v8@@@0@@ZV?$Local@VValue@v8@@@2@@Z 0000000180030270     scrypt_node.obj
 0004:0000027c       $pdata$?load_exe_hook@@YAP6A_JXZIPEAUDelayLoadInfo@@@Z 000000018003027c     win_delay_load_hook.obj
 0004:00000288       $pdata$pickparams          0000000180030288     scrypt_wrapper:pickparams.obj
 0004:00000294       $pdata$KDF                 0000000180030294     scrypt_wrapper:keyderivation.obj
 0004:000002a0       $pdata$Verify              00000001800302a0     scrypt_wrapper:keyderivation.obj
 0004:000002ac       $pdata$scryptenc_cpuperf   00000001800302ac     scrypt_lib:scryptenc_cpuperf.obj
 0004:000002b8       $pdata$SHA256_Transform    00000001800302b8     scrypt_lib:sha256.obj
 0004:000002c4       $pdata$SHA256_Pad          00000001800302c4     scrypt_lib:sha256.obj
 0004:000002d0       $pdata$2$SHA256_Pad        00000001800302d0     scrypt_lib:sha256.obj
 0004:000002dc       $pdata$3$SHA256_Pad        00000001800302dc     scrypt_lib:sha256.obj
 0004:000002e8       $pdata$libcperciva_SHA256_Update 00000001800302e8     scrypt_lib:sha256.obj
 0004:000002f4       $pdata$0$libcperciva_SHA256_Update 00000001800302f4     scrypt_lib:sha256.obj
 0004:00000300       $pdata$1$libcperciva_SHA256_Update 0000000180030300     scrypt_lib:sha256.obj
 0004:0000030c       $pdata$libcperciva_SHA256_Final 000000018003030c     scrypt_lib:sha256.obj
 0004:00000318       $pdata$libcperciva_HMAC_SHA256_Init 0000000180030318     scrypt_lib:sha256.obj
 0004:00000324       $pdata$0$libcperciva_HMAC_SHA256_Init 0000000180030324     scrypt_lib:sha256.obj
 0004:00000330       $pdata$1$libcperciva_HMAC_SHA256_Init 0000000180030330     scrypt_lib:sha256.obj
 0004:0000033c       $pdata$libcperciva_HMAC_SHA256_Final 000000018003033c     scrypt_lib:sha256.obj
 0004:00000348       $pdata$1$libcperciva_HMAC_SHA256_Final 0000000180030348     scrypt_lib:sha256.obj
 0004:00000354       $pdata$2$libcperciva_HMAC_SHA256_Final 0000000180030354     scrypt_lib:sha256.obj
 0004:00000360       $pdata$PBKDF2_SHA256       0000000180030360     scrypt_lib:sha256.obj
 0004:0000036c       $pdata$_crypto_scrypt      000000018003036c     scrypt_lib:crypto_scrypt.obj
 0004:00000378       $pdata$crypto_scrypt       0000000180030378     scrypt_lib:crypto_scrypt.obj
 0004:00000384       $pdata$fprintf             0000000180030384     scrypt_lib:warnp.obj
 0004:00000390       $pdata$libcperciva_warnx   0000000180030390     scrypt_lib:warnp.obj
 0004:0000039c       $pdata$1$libcperciva_warnx 000000018003039c     scrypt_lib:warnp.obj
 0004:000003a8       $pdata$2$libcperciva_warnx 00000001800303a8     scrypt_lib:warnp.obj
 0004:000003b4       $pdata$salsa20_8           00000001800303b4     scrypt_lib:crypto_scrypt_smix.obj
 0004:000003c0       $pdata$blockmix_salsa8     00000001800303c0     scrypt_lib:crypto_scrypt_smix.obj
 0004:000003cc       $pdata$4$blockmix_salsa8   00000001800303cc     scrypt_lib:crypto_scrypt_smix.obj
 0004:000003d8       $pdata$5$blockmix_salsa8   00000001800303d8     scrypt_lib:crypto_scrypt_smix.obj
 0004:000003e4       $pdata$crypto_scrypt_smix  00000001800303e4     scrypt_lib:crypto_scrypt_smix.obj
 0004:000003f0       $pdata$3$crypto_scrypt_smix 00000001800303f0     scrypt_lib:crypto_scrypt_smix.obj
 0004:000003fc       $pdata$5$crypto_scrypt_smix 00000001800303fc     scrypt_lib:crypto_scrypt_smix.obj
 0004:00000408       $pdata$6$crypto_scrypt_smix 0000000180030408     scrypt_lib:crypto_scrypt_smix.obj
 0004:00000414       $pdata$7$crypto_scrypt_smix 0000000180030414     scrypt_lib:crypto_scrypt_smix.obj
 0004:0000042c       $pdata$??0bad_alloc@std@@QEAA@AEBV01@@Z 000000018003042c     libcpmt:xthrow.obj
 0004:00000438       $pdata$??0exception@std@@QEAA@AEBV01@@Z 0000000180030438     libcpmt:xthrow.obj
 0004:00000444       $pdata$??0length_error@std@@QEAA@AEBV01@@Z 0000000180030444     libcpmt:xthrow.obj
 0004:00000450       $pdata$??0length_error@std@@QEAA@PEBD@Z 0000000180030450     libcpmt:xthrow.obj
 0004:0000045c       $pdata$??0logic_error@std@@QEAA@AEBV01@@Z 000000018003045c     libcpmt:xthrow.obj
 0004:00000468       $pdata$??_Gbad_alloc@std@@UEAAPEAXI@Z 0000000180030468     libcpmt:xthrow.obj
 0004:00000468       $pdata$??_Gbad_array_new_length@std@@UEAAPEAXI@Z 0000000180030468     LIBCMT:throw_bad_alloc.obj
 0004:00000468       $pdata$??_Gexception@std@@UEAAPEAXI@Z 0000000180030468     libcpmt:xthrow.obj
 0004:00000468       $pdata$??_Glength_error@std@@UEAAPEAXI@Z 0000000180030468     libcpmt:xthrow.obj
 0004:00000468       $pdata$??_Glogic_error@std@@UEAAPEAXI@Z 0000000180030468     libcpmt:xthrow.obj
 0004:00000468       $pdata$??_Gbad_exception@std@@UEAAPEAXI@Z 0000000180030468     libvcruntime:frame.obj
 0004:00000474       $pdata$?_Xlength_error@std@@YAXPEBD@Z 0000000180030474     libcpmt:xthrow.obj
 0004:0000048c       $pdata$??2@YAPEAX_K@Z      000000018003048c     LIBCMT:new_scalar.obj
 0004:00000498       $pdata$?dllmain_crt_dispatch@@YAHQEAUHINSTANCE__@@KQEAX@Z 0000000180030498     LIBCMT:dll_dllmain.obj
 0004:000004a4       $pdata$?dllmain_crt_process_attach@@YAHQEAUHINSTANCE__@@QEAX@Z 00000001800304a4     LIBCMT:dll_dllmain.obj
 0004:000004b0       $pdata$?dllmain_crt_process_detach@@YAH_N@Z 00000001800304b0     LIBCMT:dll_dllmain.obj
 0004:000004bc       $pdata$?dllmain_dispatch@@YAHQEAUHINSTANCE__@@KQEAX@Z 00000001800304bc     LIBCMT:dll_dllmain.obj
 0004:000004c8       $pdata$_DllMainCRTStartup  00000001800304c8     LIBCMT:dll_dllmain.obj
 0004:000004d4       $pdata$__scrt_acquire_startup_lock 00000001800304d4     LIBCMT:utility.obj
 0004:000004e0       $pdata$__scrt_dllmain_after_initialize_c 00000001800304e0     LIBCMT:utility.obj
 0004:000004ec       $pdata$__scrt_dllmain_before_initialize_c 00000001800304ec     LIBCMT:utility.obj
 0004:000004f8       $pdata$__scrt_dllmain_crt_thread_attach 00000001800304f8     LIBCMT:utility.obj
 0004:00000504       $pdata$__scrt_dllmain_crt_thread_detach 0000000180030504     LIBCMT:utility.obj
 0004:00000510       $pdata$__scrt_dllmain_exception_filter 0000000180030510     LIBCMT:utility.obj
 0004:0000051c       $pdata$__scrt_dllmain_uninitialize_c 000000018003051c     LIBCMT:utility.obj
 0004:00000528       $pdata$__scrt_dllmain_uninitialize_critical 0000000180030528     LIBCMT:utility.obj
 0004:00000534       $pdata$__scrt_initialize_crt 0000000180030534     LIBCMT:utility.obj
 0004:00000540       $pdata$__scrt_initialize_onexit_tables 0000000180030540     LIBCMT:utility.obj
 0004:0000054c       $pdata$__scrt_is_nonwritable_in_current_image 000000018003054c     LIBCMT:utility.obj
 0004:00000558       $pdata$__scrt_release_startup_lock 0000000180030558     LIBCMT:utility.obj
 0004:00000564       $pdata$__scrt_uninitialize_crt 0000000180030564     LIBCMT:utility.obj
 0004:00000570       $pdata$??_Gtype_info@@UEAAPEAXI@Z 0000000180030570     LIBCMT:std_type_info_static.obj
 0004:0000057c       $pdata$__raise_securityfailure 000000018003057c     LIBCMT:gs_report.obj
 0004:00000588       $pdata$__report_gsfailure  0000000180030588     LIBCMT:gs_report.obj
 0004:00000594       $pdata$__report_rangecheckfailure 0000000180030594     LIBCMT:gs_report.obj
 0004:000005a0       $pdata$__report_securityfailure 00000001800305a0     LIBCMT:gs_report.obj
 0004:000005ac       $pdata$capture_current_context 00000001800305ac     LIBCMT:gs_report.obj
 0004:000005b8       $pdata$capture_previous_context 00000001800305b8     LIBCMT:gs_report.obj
 0004:000005c4       $pdata$??0bad_array_new_length@std@@QEAA@AEBV01@@Z 00000001800305c4     LIBCMT:throw_bad_alloc.obj
 0004:000005d0       $pdata$?__scrt_throw_std_bad_alloc@@YAXXZ 00000001800305d0     LIBCMT:throw_bad_alloc.obj
 0004:000005dc       $pdata$?__scrt_throw_std_bad_array_new_length@@YAXXZ 00000001800305dc     LIBCMT:throw_bad_alloc.obj
 0004:000005e8       $pdata$__security_init_cookie 00000001800305e8     LIBCMT:gs_support.obj
 0004:000005f4       $pdata$__scrt_initialize_default_local_stdio_options 00000001800305f4     LIBCMT:default_local_stdio_options.obj
 0004:00000600       $pdata$__scrt_fastfail     0000000180030600     LIBCMT:utility_desktop.obj
 0004:0000060c       $pdata$_RTC_Initialize     000000018003060c     LIBCMT:_initsect_.obj
 0004:00000618       $pdata$_RTC_Terminate      0000000180030618     LIBCMT:_initsect_.obj
 0004:00000624       $pdata$__isa_available_init 0000000180030624     LIBCMT:_cpu_disp_.obj
 0004:00000630       $pdata$?_ExecutionInCatch@@YAHPEAU_xDISPATCHER_CONTEXT@@PEBU_s_FuncInfo@@@Z 0000000180030630     libvcruntime:risctrnsctrl.obj
 0004:0000063c       $pdata$?_GetEstablisherFrame@@YAPEA_KPEA_KPEAU_xDISPATCHER_CONTEXT@@PEBU_s_FuncInfo@@0@Z 000000018003063c     libvcruntime:risctrnsctrl.obj
 0004:00000648       $pdata$?_GetRangeOfTrysToCheck@@YAPEBU_s_TryBlockMapEntry@@PEA_KPEBU_s_FuncInfo@@HHPEAI2PEAU_xDISPATCHER_CONTEXT@@@Z 0000000180030648     libvcruntime:risctrnsctrl.obj
 0004:00000654       $pdata$?__FrameUnwindToEmptyState@@YAXPEA_KPEAU_xDISPATCHER_CONTEXT@@PEBU_s_FuncInfo@@@Z 0000000180030654     libvcruntime:risctrnsctrl.obj
 0004:00000660       $pdata$_CallSETranslator   0000000180030660     libvcruntime:risctrnsctrl.obj
 0004:0000066c       $pdata$_CreateFrameInfo    000000018003066c     libvcruntime:risctrnsctrl.obj
 0004:00000678       $pdata$_FindAndUnlinkFrame 0000000180030678     libvcruntime:risctrnsctrl.obj
 0004:00000684       $pdata$_GetImageBase       0000000180030684     libvcruntime:risctrnsctrl.obj
 0004:00000690       $pdata$_GetThrowImageBase  0000000180030690     libvcruntime:risctrnsctrl.obj
 0004:0000069c       $pdata$_SetImageBase       000000018003069c     libvcruntime:risctrnsctrl.obj
 0004:000006a8       $pdata$_SetThrowImageBase  00000001800306a8     libvcruntime:risctrnsctrl.obj
 0004:000006b4       $pdata$_UnwindNestedFrames 00000001800306b4     libvcruntime:risctrnsctrl.obj
 0004:000006c0       $pdata$__CxxFrameHandler3  00000001800306c0     libvcruntime:risctrnsctrl.obj
 0004:000006cc       $pdata$__DestructExceptionObject 00000001800306cc     libvcruntime:ehhelpers.obj
 0004:000006d8       $pdata$_IsExceptionObjectToBeDestroyed 00000001800306d8     libvcruntime:ehhelpers.obj
 0004:000006e4       $pdata$__FrameUnwindFilter 00000001800306e4     libvcruntime:ehhelpers.obj
 0004:000006f0       $pdata$__std_terminate     00000001800306f0     libvcruntime:ehhelpers.obj
 0004:000006fc       $pdata$_purecall           00000001800306fc     libvcruntime:purevirt.obj
 0004:00000708       $pdata$__std_exception_copy 0000000180030708     libvcruntime:std_exception.obj
 0004:00000714       $pdata$__std_exception_destroy 0000000180030714     libvcruntime:std_exception.obj
 0004:00000720       $pdata$_CxxThrowException  0000000180030720     libvcruntime:throw.obj
 0004:0000072c       $pdata$__C_specific_handler 000000018003072c     libvcruntime:_riscchandler_.obj
 0004:00000738       $pdata$__vcrt_initialize   0000000180030738     libvcruntime:initialization.obj
 0004:00000744       $pdata$__vcrt_thread_attach 0000000180030744     libvcruntime:initialization.obj
 0004:00000750       $pdata$__vcrt_thread_detach 0000000180030750     libvcruntime:initialization.obj
 0004:0000075c       $pdata$__vcrt_uninitialize 000000018003075c     libvcruntime:initialization.obj
 0004:00000768       $pdata$__vcrt_uninitialize_critical 0000000180030768     libvcruntime:initialization.obj
 0004:00000774       $pdata$__std_type_info_destroy_list 0000000180030774     libvcruntime:std_type_info.obj
 0004:0000078c       $pdata$__vcrt_freefls      000000018003078c     libvcruntime:per_thread_data.obj
 0004:00000798       $pdata$__vcrt_freeptd      0000000180030798     libvcruntime:per_thread_data.obj
 0004:000007a4       $pdata$__vcrt_getptd       00000001800307a4     libvcruntime:per_thread_data.obj
 0004:000007b0       $pdata$__vcrt_getptd_noexit 00000001800307b0     libvcruntime:per_thread_data.obj
 0004:000007bc       $pdata$__vcrt_initialize_ptd 00000001800307bc     libvcruntime:per_thread_data.obj
 0004:000007c8       $pdata$__vcrt_uninitialize_ptd 00000001800307c8     libvcruntime:per_thread_data.obj
 0004:000007d4       $pdata$?__GetCurrentState@@YAHPEA_KPEAU_xDISPATCHER_CONTEXT@@PEBU_s_FuncInfo@@@Z 00000001800307d4     libvcruntime:riscehstate.obj
 0004:000007e0       $pdata$?__GetUnwindTryBlock@@YAHPEA_KPEAU_xDISPATCHER_CONTEXT@@PEBU_s_FuncInfo@@@Z 00000001800307e0     libvcruntime:riscehstate.obj
 0004:000007ec       $pdata$?__SetUnwindTryBlock@@YAXPEA_KPEAU_xDISPATCHER_CONTEXT@@PEBU_s_FuncInfo@@H@Z 00000001800307ec     libvcruntime:riscehstate.obj
 0004:000007f8       $pdata$?__StateFromIp@@YAHPEBU_s_FuncInfo@@PEAU_xDISPATCHER_CONTEXT@@_K@Z 00000001800307f8     libvcruntime:riscehstate.obj
 0004:00000804       $pdata$??0bad_exception@std@@QEAA@AEBV01@@Z 0000000180030804     libvcruntime:frame.obj
 0004:00000810       $pdata$?CatchIt@@YAXPEAUEHExceptionRecord@@PEA_KPEAU_CONTEXT@@PEAU_xDISPATCHER_CONTEXT@@PEBU_s_FuncInfo@@PEBU_s_HandlerType@@PEBU_s_CatchableType@@PEBU_s_TryBlockMapEntry@@H1EE@Z 0000000180030810     libvcruntime:frame.obj
 0004:0000081c       $pdata$?ExFilterRethrow@@YAHPEAU_EXCEPTION_POINTERS@@PEAUEHExceptionRecord@@PEAH@Z 000000018003081c     libvcruntime:frame.obj
 0004:00000828       $pdata$?FindHandler@@YAXPEAUEHExceptionRecord@@PEA_KPEAU_CONTEXT@@PEAU_xDISPATCHER_CONTEXT@@PEBU_s_FuncInfo@@EH1@Z 0000000180030828     libvcruntime:frame.obj
 0004:00000834       $pdata$?FindHandlerForForeignException@@YAXPEAUEHExceptionRecord@@PEA_KPEAU_CONTEXT@@PEAU_xDISPATCHER_CONTEXT@@PEBU_s_FuncInfo@@HH1@Z 0000000180030834     libvcruntime:frame.obj
 0004:00000840       $pdata$?IsInExceptionSpec@@YAEPEAUEHExceptionRecord@@PEBU_s_ESTypeList@@@Z 0000000180030840     libvcruntime:frame.obj
 0004:0000084c       $pdata$__BuildCatchObject  000000018003084c     libvcruntime:frame.obj
 0004:00000858       $pdata$__BuildCatchObjectHelper 0000000180030858     libvcruntime:frame.obj
 0004:00000864       $pdata$__CxxCallCatchBlock 0000000180030864     libvcruntime:frame.obj
 0004:00000870       $pdata$__FrameUnwindToState 0000000180030870     libvcruntime:frame.obj
 0004:0000087c       $pdata$__InternalCxxFrameHandler 000000018003087c     libvcruntime:frame.obj
 0004:00000888       $pdata$__TypeMatch         0000000180030888     libvcruntime:frame.obj
 0004:000008c4       $pdata$__vcrt_initialize_locks 00000001800308c4     libvcruntime:locks.obj
 0004:000008d0       $pdata$__vcrt_uninitialize_locks 00000001800308d0     libvcruntime:locks.obj
 0004:000008dc       $pdata$?try_get_function@@YAPEAXW4function_id@?A0x89697e75@@QEBDQEBW4module_id@2@2@Z 00000001800308dc     libvcruntime:winapi_downlevel.obj
 0004:000008e8       $pdata$__vcrt_FlsAlloc     00000001800308e8     libvcruntime:winapi_downlevel.obj
 0004:000008f4       $pdata$__vcrt_FlsFree      00000001800308f4     libvcruntime:winapi_downlevel.obj
 0004:00000900       $pdata$__vcrt_FlsGetValue  0000000180030900     libvcruntime:winapi_downlevel.obj
 0004:0000090c       $pdata$__vcrt_FlsSetValue  000000018003090c     libvcruntime:winapi_downlevel.obj
 0004:00000918       $pdata$__vcrt_InitializeCriticalSectionEx 0000000180030918     libvcruntime:winapi_downlevel.obj
 0004:00000924       $pdata$__vcrt_initialize_winapi_thunks 0000000180030924     libvcruntime:winapi_downlevel.obj
 0004:00000930       $pdata$__vcrt_uninitialize_winapi_thunks 0000000180030930     libvcruntime:winapi_downlevel.obj
 0004:00000954       $pdata$strerror            0000000180030954     libucrt:strerror.obj
 0004:00000960       $pdata$__acrt_call_reportfault 0000000180030960     libucrt:invalid_parameter.obj
 0004:0000096c       $pdata$_invalid_parameter  000000018003096c     libucrt:invalid_parameter.obj
 0004:00000978       $pdata$_invalid_parameter_noinfo 0000000180030978     libucrt:invalid_parameter.obj
 0004:00000984       $pdata$_invalid_parameter_noinfo_noreturn 0000000180030984     libucrt:invalid_parameter.obj
 0004:00000990       $pdata$_invoke_watson      0000000180030990     libucrt:invalid_parameter.obj
 0004:0000099c       $pdata$??$common_assert_to_message_box@_W@@YAXQEB_W0IQEAX@Z 000000018003099c     libucrt:assert.obj
 0004:000009a8       $pdata$??$common_assert_to_message_box_build_string@_W@@YAXQEA_W_KQEB_W2IQEAX@Z 00000001800309a8     libucrt:assert.obj
 0004:000009b4       $pdata$??$common_assert_to_stderr@_W@@YAXQEB_W0I@Z 00000001800309b4     libucrt:assert.obj
 0004:000009c0       $pdata$_wassert            00000001800309c0     libucrt:assert.obj
 0004:000009cc       $pdata$fwprintf            00000001800309cc     libucrt:assert.obj
 0004:000009d8       $pdata$swprintf            00000001800309d8     libucrt:assert.obj
 0004:000009e4       $pdata$??0_LocaleUpdate@@QEAA@QEAU__crt_locale_pointers@@@Z 00000001800309e4     libucrt:stricmp.obj
 0004:000009f0       $pdata$_stricmp            00000001800309f0     libucrt:stricmp.obj
 0004:000009fc       $pdata$_stricmp_l          00000001800309fc     libucrt:stricmp.obj
 0004:00000a08       $pdata$__acrt_errno_map_os_error 0000000180030a08     libucrt:errno.obj
 0004:00000a14       $pdata$__doserrno          0000000180030a14     libucrt:errno.obj
 0004:00000a20       $pdata$_errno              0000000180030a20     libucrt:errno.obj
 0004:00000a2c       $pdata$abort               0000000180030a2c     libucrt:abort.obj
 0004:00000a38       $pdata$__acrt_initialize_stdio 0000000180030a38     libucrt:_file.obj
 0004:00000a44       $pdata$__acrt_uninitialize_stdio 0000000180030a44     libucrt:_file.obj
 0004:00000a50       $pdata$??$?RV<lambda_0d412022a4b28cc8a401ea49574e8ae6>@@AEAV<lambda_a775ed57af18ba8e4d5dc780aa9068fe>@@V<lambda_975a71a6baa488a08f4e15f6b0339b9e>@@@?$__crt_seh_guarded_call@H@@QEAAH$$QEAV<lambda_0d412022a4b28cc8a401ea49574e8ae6>@@AEAV<lambda_a775ed57af18ba8e4d5dc780aa9068fe>@@$$QEAV<lambda_975a71a6baa488a08f4e15f6b0339b9e>@@@Z 0000000180030a50     libucrt:output.obj
 0004:00000a5c       $pdata$??$?RV<lambda_a62c933ada0517137acf5807a1eeac1f>@@AEAV<lambda_a31071773b9a94e445cbd5d04ef99106>@@V<lambda_56065050dbf3ada7e59a83db45153de3>@@@?$__crt_seh_guarded_call@H@@QEAAH$$QEAV<lambda_a62c933ada0517137acf5807a1eeac1f>@@AEAV<lambda_a31071773b9a94e445cbd5d04ef99106>@@$$QEAV<lambda_56065050dbf3ada7e59a83db45153de3>@@@Z 0000000180030a5c     libucrt:output.obj
 0004:00000a68       $pdata$??$common_vsprintf@Vstandard_base@__crt_stdio_output@@_W@@YAH_KQEA_W0QEB_WQEAU__crt_locale_pointers@@QEAD@Z 0000000180030a68     libucrt:output.obj
 0004:00000a74       $pdata$??$ensure_buffer_is_big_enough@D@formatting_buffer@__crt_stdio_output@@QEAA_N_K@Z 0000000180030a74     libucrt:output.obj
 0004:00000a80       $pdata$??$ensure_buffer_is_big_enough@_W@formatting_buffer@__crt_stdio_output@@QEAA_N_K@Z 0000000180030a80     libucrt:output.obj
 0004:00000a8c       $pdata$??$type_case_integer_parse_into_buffer@I@?$output_processor@DV?$stream_output_adapter@D@__crt_stdio_output@@V?$standard_base@DV?$stream_output_adapter@D@__crt_stdio_output@@@2@@__crt_stdio_output@@AEAAXII_N@Z 0000000180030a8c     libucrt:output.obj
 0004:00000a98       $pdata$??$type_case_integer_parse_into_buffer@I@?$output_processor@_WV?$stream_output_adapter@_W@__crt_stdio_output@@V?$standard_base@_WV?$stream_output_adapter@_W@__crt_stdio_output@@@2@@__crt_stdio_output@@AEAAXII_N@Z 0000000180030a98     libucrt:output.obj
 0004:00000a98       $pdata$??$type_case_integer_parse_into_buffer@I@?$output_processor@_WV?$string_output_adapter@_W@__crt_stdio_output@@V?$standard_base@_WV?$string_output_adapter@_W@__crt_stdio_output@@@2@@__crt_stdio_output@@AEAAXII_N@Z 0000000180030a98     libucrt:output.obj
 0004:00000aa4       $pdata$??$type_case_integer_parse_into_buffer@_K@?$output_processor@DV?$stream_output_adapter@D@__crt_stdio_output@@V?$standard_base@DV?$stream_output_adapter@D@__crt_stdio_output@@@2@@__crt_stdio_output@@AEAAX_KI_N@Z 0000000180030aa4     libucrt:output.obj
 0004:00000ab0       $pdata$??$type_case_integer_parse_into_buffer@_K@?$output_processor@_WV?$string_output_adapter@_W@__crt_stdio_output@@V?$standard_base@_WV?$string_output_adapter@_W@__crt_stdio_output@@@2@@__crt_stdio_output@@AEAAX_KI_N@Z 0000000180030ab0     libucrt:output.obj
 0004:00000ab0       $pdata$??$type_case_integer_parse_into_buffer@_K@?$output_processor@_WV?$stream_output_adapter@_W@__crt_stdio_output@@V?$standard_base@_WV?$stream_output_adapter@_W@__crt_stdio_output@@@2@@__crt_stdio_output@@AEAAX_KI_N@Z 0000000180030ab0     libucrt:output.obj
 0004:00000abc       $pdata$??$write_multiple_characters@V?$stream_output_adapter@D@__crt_stdio_output@@D@__crt_stdio_output@@YAXAEBV?$stream_output_adapter@D@0@DHQEAH@Z 0000000180030abc     libucrt:output.obj
 0004:00000ac8       $pdata$??$write_multiple_characters@V?$stream_output_adapter@_W@__crt_stdio_output@@D@__crt_stdio_output@@YAXAEBV?$stream_output_adapter@_W@0@DHQEAH@Z 0000000180030ac8     libucrt:output.obj
 0004:00000ad4       $pdata$??$write_multiple_characters@V?$string_output_adapter@_W@__crt_stdio_output@@D@__crt_stdio_output@@YAXAEBV?$string_output_adapter@_W@0@DHQEAH@Z 0000000180030ad4     libucrt:output.obj
 0004:00000ae0       $pdata$??R<lambda_a31071773b9a94e445cbd5d04ef99106>@@QEBAHXZ 0000000180030ae0     libucrt:output.obj
 0004:00000aec       $pdata$??R<lambda_a775ed57af18ba8e4d5dc780aa9068fe>@@QEBAHXZ 0000000180030aec     libucrt:output.obj
 0004:00000af8       $pdata$?force_decimal_point@__crt_stdio_output@@YAXPEADQEAU__crt_locale_pointers@@@Z 0000000180030af8     libucrt:output.obj
 0004:00000b04       $pdata$?parse_int_from_format_string@?$output_processor@DV?$stream_output_adapter@D@__crt_stdio_output@@V?$standard_base@DV?$stream_output_adapter@D@__crt_stdio_output@@@2@@__crt_stdio_output@@AEAA_NQEAH@Z 0000000180030b04     libucrt:output.obj
 0004:00000b10       $pdata$?parse_int_from_format_string@?$output_processor@_WV?$string_output_adapter@_W@__crt_stdio_output@@V?$standard_base@_WV?$string_output_adapter@_W@__crt_stdio_output@@@2@@__crt_stdio_output@@AEAA_NQEAH@Z 0000000180030b10     libucrt:output.obj
 0004:00000b10       $pdata$?parse_int_from_format_string@?$output_processor@_WV?$stream_output_adapter@_W@__crt_stdio_output@@V?$standard_base@_WV?$stream_output_adapter@_W@__crt_stdio_output@@@2@@__crt_stdio_output@@AEAA_NQEAH@Z 0000000180030b10     libucrt:output.obj
 0004:00000b1c       $pdata$?process@?$output_processor@DV?$stream_output_adapter@D@__crt_stdio_output@@V?$standard_base@DV?$stream_output_adapter@D@__crt_stdio_output@@@2@@__crt_stdio_output@@QEAAHXZ 0000000180030b1c     libucrt:output.obj
 0004:00000b28       $pdata$?process@?$output_processor@_WV?$stream_output_adapter@_W@__crt_stdio_output@@V?$standard_base@_WV?$stream_output_adapter@_W@__crt_stdio_output@@@2@@__crt_stdio_output@@QEAAHXZ 0000000180030b28     libucrt:output.obj
 0004:00000b34       $pdata$?process@?$output_processor@_WV?$string_output_adapter@_W@__crt_stdio_output@@V?$standard_base@_WV?$string_output_adapter@_W@__crt_stdio_output@@@2@@__crt_stdio_output@@QEAAHXZ 0000000180030b34     libucrt:output.obj
 0004:00000b40       $pdata$?state_case_normal@?$output_processor@DV?$stream_output_adapter@D@__crt_stdio_output@@V?$standard_base@DV?$stream_output_adapter@D@__crt_stdio_output@@@2@@__crt_stdio_output@@AEAA_NXZ 0000000180030b40     libucrt:output.obj
 0004:00000b4c       $pdata$?state_case_normal_tchar@?$output_processor@DV?$stream_output_adapter@D@__crt_stdio_output@@V?$standard_base@DV?$stream_output_adapter@D@__crt_stdio_output@@@2@@__crt_stdio_output@@AEAA_ND@Z 0000000180030b4c     libucrt:output.obj
 0004:00000b58       $pdata$?state_case_size@?$output_processor@DV?$stream_output_adapter@D@__crt_stdio_output@@V?$standard_base@DV?$stream_output_adapter@D@__crt_stdio_output@@@2@@__crt_stdio_output@@AEAA_NXZ 0000000180030b58     libucrt:output.obj
 0004:00000b64       $pdata$?state_case_size@?$output_processor@_WV?$stream_output_adapter@_W@__crt_stdio_output@@V?$standard_base@_WV?$stream_output_adapter@_W@__crt_stdio_output@@@2@@__crt_stdio_output@@AEAA_NXZ 0000000180030b64     libucrt:output.obj
 0004:00000b70       $pdata$?state_case_size@?$output_processor@_WV?$string_output_adapter@_W@__crt_stdio_output@@V?$standard_base@_WV?$string_output_adapter@_W@__crt_stdio_output@@@2@@__crt_stdio_output@@AEAA_NXZ 0000000180030b70     libucrt:output.obj
 0004:00000b7c       $pdata$?state_case_type@?$output_processor@DV?$stream_output_adapter@D@__crt_stdio_output@@V?$standard_base@DV?$stream_output_adapter@D@__crt_stdio_output@@@2@@__crt_stdio_output@@AEAA_NXZ 0000000180030b7c     libucrt:output.obj
 0004:00000b88       $pdata$?state_case_type@?$output_processor@_WV?$stream_output_adapter@_W@__crt_stdio_output@@V?$standard_base@_WV?$stream_output_adapter@_W@__crt_stdio_output@@@2@@__crt_stdio_output@@AEAA_NXZ 0000000180030b88     libucrt:output.obj
 0004:00000b94       $pdata$?state_case_type@?$output_processor@_WV?$string_output_adapter@_W@__crt_stdio_output@@V?$standard_base@_WV?$string_output_adapter@_W@__crt_stdio_output@@@2@@__crt_stdio_output@@AEAA_NXZ 0000000180030b94     libucrt:output.obj
 0004:00000ba0       $pdata$?type_case_Z@?$output_processor@_WV?$stream_output_adapter@_W@__crt_stdio_output@@V?$standard_base@_WV?$stream_output_adapter@_W@__crt_stdio_output@@@2@@__crt_stdio_output@@AEAA_NXZ 0000000180030ba0     libucrt:output.obj
 0004:00000ba0       $pdata$?type_case_Z@?$output_processor@_WV?$string_output_adapter@_W@__crt_stdio_output@@V?$standard_base@_WV?$string_output_adapter@_W@__crt_stdio_output@@@2@@__crt_stdio_output@@AEAA_NXZ 0000000180030ba0     libucrt:output.obj
 0004:00000bac       $pdata$?type_case_a@?$output_processor@DV?$stream_output_adapter@D@__crt_stdio_output@@V?$standard_base@DV?$stream_output_adapter@D@__crt_stdio_output@@@2@@__crt_stdio_output@@AEAA_NXZ 0000000180030bac     libucrt:output.obj
 0004:00000bb8       $pdata$?type_case_a@?$output_processor@_WV?$string_output_adapter@_W@__crt_stdio_output@@V?$standard_base@_WV?$string_output_adapter@_W@__crt_stdio_output@@@2@@__crt_stdio_output@@AEAA_NXZ 0000000180030bb8     libucrt:output.obj
 0004:00000bb8       $pdata$?type_case_a@?$output_processor@_WV?$stream_output_adapter@_W@__crt_stdio_output@@V?$standard_base@_WV?$stream_output_adapter@_W@__crt_stdio_output@@@2@@__crt_stdio_output@@AEAA_NXZ 0000000180030bb8     libucrt:output.obj
 0004:00000bc4       $pdata$?type_case_c_tchar@?$output_processor@DV?$stream_output_adapter@D@__crt_stdio_output@@V?$standard_base@DV?$stream_output_adapter@D@__crt_stdio_output@@@2@@__crt_stdio_output@@AEAA_ND@Z 0000000180030bc4     libucrt:output.obj
 0004:00000bd0       $pdata$?type_case_c_tchar@?$output_processor@_WV?$string_output_adapter@_W@__crt_stdio_output@@V?$standard_base@_WV?$string_output_adapter@_W@__crt_stdio_output@@@2@@__crt_stdio_output@@AEAA_N_W@Z 0000000180030bd0     libucrt:output.obj
 0004:00000bd0       $pdata$?type_case_c_tchar@?$output_processor@_WV?$stream_output_adapter@_W@__crt_stdio_output@@V?$standard_base@_WV?$stream_output_adapter@_W@__crt_stdio_output@@@2@@__crt_stdio_output@@AEAA_N_W@Z 0000000180030bd0     libucrt:output.obj
 0004:00000bdc       $pdata$?type_case_integer@?$output_processor@DV?$stream_output_adapter@D@__crt_stdio_output@@V?$standard_base@DV?$stream_output_adapter@D@__crt_stdio_output@@@2@@__crt_stdio_output@@AEAA_NI_N@Z 0000000180030bdc     libucrt:output.obj
 0004:00000be8       $pdata$?type_case_integer@?$output_processor@_WV?$stream_output_adapter@_W@__crt_stdio_output@@V?$standard_base@_WV?$stream_output_adapter@_W@__crt_stdio_output@@@2@@__crt_stdio_output@@AEAA_NI_N@Z 0000000180030be8     libucrt:output.obj
 0004:00000be8       $pdata$?type_case_integer@?$output_processor@_WV?$string_output_adapter@_W@__crt_stdio_output@@V?$standard_base@_WV?$string_output_adapter@_W@__crt_stdio_output@@@2@@__crt_stdio_output@@AEAA_NI_N@Z 0000000180030be8     libucrt:output.obj
 0004:00000bf4       $pdata$?type_case_n@?$output_processor@_WV?$string_output_adapter@_W@__crt_stdio_output@@V?$standard_base@_WV?$string_output_adapter@_W@__crt_stdio_output@@@2@@__crt_stdio_output@@AEAA_NXZ 0000000180030bf4     libucrt:output.obj
 0004:00000bf4       $pdata$?type_case_n@?$output_processor@_WV?$stream_output_adapter@_W@__crt_stdio_output@@V?$standard_base@_WV?$stream_output_adapter@_W@__crt_stdio_output@@@2@@__crt_stdio_output@@AEAA_NXZ 0000000180030bf4     libucrt:output.obj
 0004:00000bf4       $pdata$?type_case_n@?$output_processor@DV?$stream_output_adapter@D@__crt_stdio_output@@V?$standard_base@DV?$stream_output_adapter@D@__crt_stdio_output@@@2@@__crt_stdio_output@@AEAA_NXZ 0000000180030bf4     libucrt:output.obj
 0004:00000c00       $pdata$?type_case_s@?$output_processor@DV?$stream_output_adapter@D@__crt_stdio_output@@V?$standard_base@DV?$stream_output_adapter@D@__crt_stdio_output@@@2@@__crt_stdio_output@@AEAA_NXZ 0000000180030c00     libucrt:output.obj
 0004:00000c0c       $pdata$?type_case_s@?$output_processor@_WV?$string_output_adapter@_W@__crt_stdio_output@@V?$standard_base@_WV?$string_output_adapter@_W@__crt_stdio_output@@@2@@__crt_stdio_output@@AEAA_NXZ 0000000180030c0c     libucrt:output.obj
 0004:00000c0c       $pdata$?type_case_s@?$output_processor@_WV?$stream_output_adapter@_W@__crt_stdio_output@@V?$standard_base@_WV?$stream_output_adapter@_W@__crt_stdio_output@@@2@@__crt_stdio_output@@AEAA_NXZ 0000000180030c0c     libucrt:output.obj
 0004:00000c18       $pdata$?validate_stream_is_ansi_if_required@?$__acrt_stdio_char_traits@D@@SA_NQEAU_iobuf@@@Z 0000000180030c18     libucrt:output.obj
 0004:00000c24       $pdata$?write_stored_string_tchar@?$output_processor@DV?$stream_output_adapter@D@__crt_stdio_output@@V?$standard_base@DV?$stream_output_adapter@D@__crt_stdio_output@@@2@@__crt_stdio_output@@AEAA_ND@Z 0000000180030c24     libucrt:output.obj
 0004:00000c30       $pdata$?write_stored_string_tchar@?$output_processor@_WV?$stream_output_adapter@_W@__crt_stdio_output@@V?$standard_base@_WV?$stream_output_adapter@_W@__crt_stdio_output@@@2@@__crt_stdio_output@@AEAA_N_W@Z 0000000180030c30     libucrt:output.obj
 0004:00000c3c       $pdata$?write_stored_string_tchar@?$output_processor@_WV?$string_output_adapter@_W@__crt_stdio_output@@V?$standard_base@_WV?$string_output_adapter@_W@__crt_stdio_output@@@2@@__crt_stdio_output@@AEAA_N_W@Z 0000000180030c3c     libucrt:output.obj
 0004:00000c48       $pdata$?write_string@?$string_output_adapter@_W@__crt_stdio_output@@QEBAXQEB_WHQEAHAEAV__crt_deferred_errno_cache@@@Z 0000000180030c48     libucrt:output.obj
 0004:00000c54       $pdata$?write_string_impl@?$output_adapter_common@DV?$stream_output_adapter@D@__crt_stdio_output@@@__crt_stdio_output@@IEBAXQEBDHQEAHAEAV__crt_deferred_errno_cache@@@Z 0000000180030c54     libucrt:output.obj
 0004:00000c60       $pdata$?write_string_impl@?$output_adapter_common@_WV?$stream_output_adapter@_W@__crt_stdio_output@@@__crt_stdio_output@@IEBAXQEB_WHQEAHAEAV__crt_deferred_errno_cache@@@Z 0000000180030c60     libucrt:output.obj
 0004:00000c6c       $pdata$__stdio_common_vfprintf 0000000180030c6c     libucrt:output.obj
 0004:00000c78       $pdata$__stdio_common_vfwprintf 0000000180030c78     libucrt:output.obj
 0004:00000c84       $pdata$_callnewh           0000000180030c84     libucrt:new_handler.obj
 0004:00000c90       $pdata$_query_new_handler  0000000180030c90     libucrt:new_handler.obj
 0004:00000c9c       $pdata$_initterm           0000000180030c9c     libucrt:initterm.obj
 0004:00000ca8       $pdata$_initterm_e         0000000180030ca8     libucrt:initterm.obj
 0004:00000cb4       $pdata$_seh_filter_exe     0000000180030cb4     libucrt:exception_filter.obj
 0004:00000cc0       $pdata$??$?RV<lambda_d80eeec6fff315bfe5c115232f3240e3>@@AEAV<lambda_6e4b09c48022b2350581041d5f6b0c4c>@@V<lambda_2358e3775559c9db80273638284d5e45>@@@?$__crt_seh_guarded_call@X@@QEAAX$$QEAV<lambda_d80eeec6fff315bfe5c115232f3240e3>@@AEAV<lambda_6e4b09c48022b2350581041d5f6b0c4c>@@$$QEAV<lambda_2358e3775559c9db80273638284d5e45>@@@Z 0000000180030cc0     libucrt:exit.obj
 0004:00000ccc       $pdata$??R<lambda_6e4b09c48022b2350581041d5f6b0c4c>@@QEBA@XZ 0000000180030ccc     libucrt:exit.obj
 0004:00000cd8       $pdata$?common_exit@@YAXHW4_crt_exit_cleanup_mode@@W4_crt_exit_return_mode@@@Z 0000000180030cd8     libucrt:exit.obj
 0004:00000ce4       $pdata$?exit_or_terminate_process@@YAXI@Z 0000000180030ce4     libucrt:exit.obj
 0004:00000cf0       $pdata$?try_cor_exit_process@@YAXI@Z 0000000180030cf0     libucrt:exit.obj
 0004:00000cfc       $pdata$??$parse_command_line@D@@YAXPEADPEAPEAD0PEA_K2@Z 0000000180030cfc     libucrt:argv_parsing.obj
 0004:00000d08       $pdata$__acrt_allocate_buffer_for_argv 0000000180030d08     libucrt:argv_parsing.obj
 0004:00000d14       $pdata$_configure_narrow_argv 0000000180030d14     libucrt:argv_parsing.obj
 0004:00000d20       $pdata$??$common_initialize_environment_nolock@D@@YAHXZ 0000000180030d20     libucrt:environment_initialization.obj
 0004:00000d2c       $pdata$??$create_environment@D@@YAQEAPEADQEAD@Z 0000000180030d2c     libucrt:environment_initialization.obj
 0004:00000d38       $pdata$??$free_environment@D@@YAXQEAPEAD@Z 0000000180030d38     libucrt:environment_initialization.obj
 0004:00000d38       $pdata$??$free_environment@_W@@YAXQEAPEA_W@Z 0000000180030d38     libucrt:environment_initialization.obj
 0004:00000d44       $pdata$??$uninitialize_environment_internal@D@@YAXAEAPEAPEAD@Z 0000000180030d44     libucrt:environment_initialization.obj
 0004:00000d50       $pdata$??$uninitialize_environment_internal@_W@@YAXAEAPEAPEA_W@Z 0000000180030d50     libucrt:environment_initialization.obj
 0004:00000d5c       $pdata$__dcrt_uninitialize_environments_nolock 0000000180030d5c     libucrt:environment_initialization.obj
 0004:00000d68       $pdata$??$?RV<lambda_7777bce6b2f8c936911f934f8298dc43>@@AEAV<lambda_f03950bc5685219e0bcd2087efbe011e>@@V<lambda_3883c3dff614d5e0c5f61bb1ac94921c>@@@?$__crt_seh_guarded_call@H@@QEAAH$$QEAV<lambda_7777bce6b2f8c936911f934f8298dc43>@@AEAV<lambda_f03950bc5685219e0bcd2087efbe011e>@@$$QEAV<lambda_3883c3dff614d5e0c5f61bb1ac94921c>@@@Z 0000000180030d68     libucrt:onexit.obj
 0004:00000d74       $pdata$??R<lambda_f03950bc5685219e0bcd2087efbe011e>@@QEBAHXZ 0000000180030d74     libucrt:onexit.obj
 0004:00000d80       $pdata$_execute_onexit_table 0000000180030d80     libucrt:onexit.obj
 0004:00000d8c       $pdata$initialize_c        0000000180030d8c     libucrt:initialization.obj
 0004:00000d98       $pdata$uninitialize_environment 0000000180030d98     libucrt:initialization.obj
 0004:00000da4       $pdata$initialize_pointers 0000000180030da4     libucrt:initialization.obj
 0004:00000db0       $pdata$uninitialize_allocated_memory 0000000180030db0     libucrt:initialization.obj
 0004:00000dbc       $pdata$uninitialize_allocated_io_buffers 0000000180030dbc     libucrt:initialization.obj
 0004:00000dc8       $pdata$__acrt_thread_attach 0000000180030dc8     libucrt:initialization.obj
 0004:00000dd4       $pdata$__acrt_thread_detach 0000000180030dd4     libucrt:initialization.obj
 0004:00000de0       $pdata$__acrt_uninitialize 0000000180030de0     libucrt:initialization.obj
 0004:00000dec       $pdata$__acrt_uninitialize_critical 0000000180030dec     libucrt:initialization.obj
 0004:00000df8       $pdata$terminate           0000000180030df8     libucrt:terminate.obj
 0004:00000e04       $pdata$strcpy_s            0000000180030e04     libucrt:strcpy_s.obj
 0004:00000e10       $pdata$??$parse_integer@KV?$c_string_character_source@D@__crt_strtox@@@__crt_strtox@@YAKQEAU__crt_locale_pointers@@V?$c_string_character_source@D@0@H_N@Z 0000000180030e10     libucrt:atox.obj
 0004:00000e1c       $pdata$??$parse_integer@KV?$c_string_character_source@_W@__crt_strtox@@@__crt_strtox@@YAKQEAU__crt_locale_pointers@@V?$c_string_character_source@_W@0@H_N@Z 0000000180030e1c     libucrt:atox.obj
 0004:00000e34       $pdata$_calloc_base        0000000180030e34     libucrt:calloc_base.obj
 0004:00000e40       $pdata$_free_base          0000000180030e40     libucrt:free_base.obj
 0004:00000e4c       $pdata$?_mbstowcs_l_helper@@YA_KPEA_WPEBD_KPEAU__crt_locale_pointers@@@Z 0000000180030e4c     libucrt:mbstowcs.obj
 0004:00000e58       $pdata$strncpy_s           0000000180030e58     libucrt:strncpy_s.obj
 0004:00000e64       $pdata$??$?RV<lambda_0ae27a3a962d80f24befdcbee591983d>@@AEAV<lambda_8d0ee55de4b1038c4002e0adecdf1839>@@V<lambda_dc504788e8f1664fe9b84e20bfb512f2>@@@?$__crt_seh_guarded_call@X@@QEAAX$$QEAV<lambda_0ae27a3a962d80f24befdcbee591983d>@@AEAV<lambda_8d0ee55de4b1038c4002e0adecdf1839>@@$$QEAV<lambda_dc504788e8f1664fe9b84e20bfb512f2>@@@Z 0000000180030e64     libucrt:per_thread_data.obj
 0004:00000e70       $pdata$??$?RV<lambda_2d41944a1d46af3157314b8a01080d33>@@AEAV<lambda_8f455de75cd7d7f24b4096f044d8b9e6>@@V<lambda_aa500f224e6afead328df44964fe2772>@@@?$__crt_seh_guarded_call@X@@QEAAX$$QEAV<lambda_2d41944a1d46af3157314b8a01080d33>@@AEAV<lambda_8f455de75cd7d7f24b4096f044d8b9e6>@@$$QEAV<lambda_aa500f224e6afead328df44964fe2772>@@@Z 0000000180030e70     libucrt:per_thread_data.obj
 0004:00000e7c       $pdata$??$?RV<lambda_aa87e3671a710a21b5dc78c0bdf72e11>@@AEAV<lambda_92619d2358a28f41a33ba319515a20b9>@@V<lambda_6992ecaafeb10aed2b74cb1fae11a551>@@@?$__crt_seh_guarded_call@X@@QEAAX$$QEAV<lambda_aa87e3671a710a21b5dc78c0bdf72e11>@@AEAV<lambda_92619d2358a28f41a33ba319515a20b9>@@$$QEAV<lambda_6992ecaafeb10aed2b74cb1fae11a551>@@@Z 0000000180030e7c     libucrt:per_thread_data.obj
 0004:00000e88       $pdata$??$?RV<lambda_f2e299630e499de9f9a165e60fcd3db5>@@AEAV<lambda_2ae9d31cdba2644fcbeaf08da7c24588>@@V<lambda_40d01ff24d0e7b3814fdbdcee8eab3c7>@@@?$__crt_seh_guarded_call@X@@QEAAX$$QEAV<lambda_f2e299630e499de9f9a165e60fcd3db5>@@AEAV<lambda_2ae9d31cdba2644fcbeaf08da7c24588>@@$$QEAV<lambda_40d01ff24d0e7b3814fdbdcee8eab3c7>@@@Z 0000000180030e88     libucrt:per_thread_data.obj
 0004:00000e94       $pdata$?construct_ptd_array@@YAXQEAU__acrt_ptd@@@Z 0000000180030e94     libucrt:per_thread_data.obj
 0004:00000ea0       $pdata$?destroy_fls@@YAXPEAX@Z 0000000180030ea0     libucrt:per_thread_data.obj
 0004:00000eac       $pdata$?destroy_ptd_array@@YAXQEAU__acrt_ptd@@@Z 0000000180030eac     libucrt:per_thread_data.obj
 0004:00000eb8       $pdata$?replace_current_thread_locale_nolock@@YAXQEAU__acrt_ptd@@QEAU__crt_locale_data@@@Z 0000000180030eb8     libucrt:per_thread_data.obj
 0004:00000ec4       $pdata$__acrt_freeptd      0000000180030ec4     libucrt:per_thread_data.obj
 0004:00000ed0       $pdata$__acrt_getptd       0000000180030ed0     libucrt:per_thread_data.obj
 0004:00000edc       $pdata$__acrt_getptd_head  0000000180030edc     libucrt:per_thread_data.obj
 0004:00000ee8       $pdata$__acrt_getptd_noexit 0000000180030ee8     libucrt:per_thread_data.obj
 0004:00000ef4       $pdata$__acrt_initialize_ptd 0000000180030ef4     libucrt:per_thread_data.obj
 0004:00000f00       $pdata$__acrt_uninitialize_ptd 0000000180030f00     libucrt:per_thread_data.obj
 0004:00000f0c       $pdata$??$common_xtox@K_W@@YAHKQEA_W_KI_N@Z 0000000180030f0c     libucrt:xtoa.obj
 0004:00000f18       $pdata$??$common_xtox_s@K_W@@YAHKQEA_W_KI_N@Z 0000000180030f18     libucrt:xtoa.obj
 0004:00000f24       $pdata$_itow_s             0000000180030f24     libucrt:xtoa.obj
 0004:00000f30       $pdata$_set_error_mode     0000000180030f30     libucrt:set_error_mode.obj
 0004:00000f3c       $pdata$wcscat_s            0000000180030f3c     libucrt:wcscat_s.obj
 0004:00000f48       $pdata$wcscpy_s            0000000180030f48     libucrt:wcscpy_s.obj
 0004:00000f54       $pdata$wcsncat_s           0000000180030f54     libucrt:wcsncat_s.obj
 0004:00000f60       $pdata$__acrt_GetModuleFileNameA 0000000180030f60     libucrt:getmodulefilenamea.obj
 0004:00000f6c       $pdata$__acrt_show_wide_message_box 0000000180030f6c     libucrt:crtmbox.obj
 0004:00000f78       $pdata$??$?RV<lambda_842d9ff0dc9ef11c61343bbaebe7f885>@@AEAV<lambda_c5860995281e5c4ce005b3de8f5874ee>@@V<lambda_d90129c13df834fdcbf8d2b88dafcf2d>@@@?$__crt_seh_guarded_call@X@@QEAAX$$QEAV<lambda_842d9ff0dc9ef11c61343bbaebe7f885>@@AEAV<lambda_c5860995281e5c4ce005b3de8f5874ee>@@$$QEAV<lambda_d90129c13df834fdcbf8d2b88dafcf2d>@@@Z 0000000180030f78     libucrt:fflush.obj
 0004:00000f84       $pdata$??$?RV<lambda_886d6c58226a84441f68b9f2b8217b83>@@AEAV<lambda_ab61a845afdef5b7c387490eaf3616ee>@@V<lambda_f7f22ab5edc0698d5f6905b0d3f44752>@@@?$__crt_seh_guarded_call@X@@QEAAX$$QEAV<lambda_886d6c58226a84441f68b9f2b8217b83>@@AEAV<lambda_ab61a845afdef5b7c387490eaf3616ee>@@$$QEAV<lambda_f7f22ab5edc0698d5f6905b0d3f44752>@@@Z 0000000180030f84     libucrt:fflush.obj
 0004:00000f90       $pdata$??$?RV<lambda_c376a267cfb53b6959b3b692ec76b120>@@AEAV<lambda_9a32fed5bf61b6b509b2d3f6003082a1>@@V<lambda_572fbb9fa0ab338edf41edfd4b5fcc8d>@@@?$__crt_seh_guarded_call@H@@QEAAH$$QEAV<lambda_c376a267cfb53b6959b3b692ec76b120>@@AEAV<lambda_9a32fed5bf61b6b509b2d3f6003082a1>@@$$QEAV<lambda_572fbb9fa0ab338edf41edfd4b5fcc8d>@@@Z 0000000180030f90     libucrt:fflush.obj
 0004:00000f9c       $pdata$?common_flush_all@@YAH_N@Z 0000000180030f9c     libucrt:fflush.obj
 0004:00000fa8       $pdata$__acrt_stdio_flush_nolock 0000000180030fa8     libucrt:fflush.obj
 0004:00000fb4       $pdata$_fflush_nolock      0000000180030fb4     libucrt:fflush.obj
 0004:00000fc0       $pdata$fflush              0000000180030fc0     libucrt:fflush.obj
 0004:00000fcc       $pdata$??$?RV<lambda_84ec643ea9557e2f7dc01bb0e9624395>@@AEAV<lambda_ca71763b3c0644891230e4f79ea54fa6>@@V<lambda_439a761618c59b0600e24586724d733b>@@@?$__crt_seh_guarded_call@H@@QEAAH$$QEAV<lambda_84ec643ea9557e2f7dc01bb0e9624395>@@AEAV<lambda_ca71763b3c0644891230e4f79ea54fa6>@@$$QEAV<lambda_439a761618c59b0600e24586724d733b>@@@Z 0000000180030fcc     libucrt:setvbuf.obj
 0004:00000fd8       $pdata$??R<lambda_ca71763b3c0644891230e4f79ea54fa6>@@QEBAHXZ 0000000180030fd8     libucrt:setvbuf.obj
 0004:00000fe4       $pdata$setvbuf             0000000180030fe4     libucrt:setvbuf.obj
 0004:00000ff0       $pdata$??$?RV<lambda_450d765d439847d4c735a33c368b5fc0>@@AEAV<lambda_44731a7d0e6d81c3e6aa82d741081786>@@V<lambda_601a2a7da3b7a96e9554ac7215c4b07c>@@@?$__crt_seh_guarded_call@P6AXH@Z@@QEAAP6AXH@Z$$QEAV<lambda_450d765d439847d4c735a33c368b5fc0>@@AEAV<lambda_44731a7d0e6d81c3e6aa82d741081786>@@$$QEAV<lambda_601a2a7da3b7a96e9554ac7215c4b07c>@@@Z 0000000180030ff0     libucrt:signal.obj
 0004:00000ffc       $pdata$__acrt_get_sigabrt_handler 0000000180030ffc     libucrt:signal.obj
 0004:00001008       $pdata$raise               0000000180031008     libucrt:signal.obj
 0004:00001014       $pdata$?internal_isupper_l@@YA_NHQEAU__crt_locale_pointers@@@Z 0000000180031014     libucrt:tolower_toupper.obj
 0004:00001020       $pdata$_tolower_l          0000000180031020     libucrt:tolower_toupper.obj
 0004:0000102c       $pdata$tolower             000000018003102c     libucrt:tolower_toupper.obj
 0004:00001038       $pdata$__acrt_update_locale_info 0000000180031038     libucrt:locale_update.obj
 0004:00001044       $pdata$__acrt_update_multibyte_info 0000000180031044     libucrt:locale_update.obj
 0004:00001050       $pdata$??$?RV<lambda_410d79af7f07d98d83a3f525b3859a53>@@AEAV<lambda_3e16ef9562a7dcce91392c22ab16ea36>@@V<lambda_38119f0e861e05405d8a144b9b982f0a>@@@?$__crt_seh_guarded_call@X@@QEAAX$$QEAV<lambda_410d79af7f07d98d83a3f525b3859a53>@@AEAV<lambda_3e16ef9562a7dcce91392c22ab16ea36>@@$$QEAV<lambda_38119f0e861e05405d8a144b9b982f0a>@@@Z 0000000180031050     libucrt:wsetlocale.obj
 0004:0000105c       $pdata$__acrt_uninitialize_locale 000000018003105c     libucrt:wsetlocale.obj
 0004:00001068       $pdata$_malloc_base        0000000180031068     libucrt:malloc_base.obj
 0004:00001074       $pdata$?try_get_function@@YAPEAXW4function_id@?A0x391cf84c@@QEBDQEBW4module_id@2@2@Z 0000000180031074     libucrt:winapi_thunks.obj
 0004:00001080       $pdata$__acrt_AppPolicyGetProcessTerminationMethodInternal 0000000180031080     libucrt:winapi_thunks.obj
 0004:0000108c       $pdata$__acrt_AppPolicyGetShowDeveloperDiagnosticInternal 000000018003108c     libucrt:winapi_thunks.obj
 0004:00001098       $pdata$__acrt_AppPolicyGetWindowingModelInternal 0000000180031098     libucrt:winapi_thunks.obj
 0004:000010a4       $pdata$__acrt_FlsAlloc     00000001800310a4     libucrt:winapi_thunks.obj
 0004:000010b0       $pdata$__acrt_FlsFree      00000001800310b0     libucrt:winapi_thunks.obj
 0004:000010bc       $pdata$__acrt_FlsGetValue  00000001800310bc     libucrt:winapi_thunks.obj
 0004:000010c8       $pdata$__acrt_FlsSetValue  00000001800310c8     libucrt:winapi_thunks.obj
 0004:000010d4       $pdata$__acrt_InitializeCriticalSectionEx 00000001800310d4     libucrt:winapi_thunks.obj
 0004:000010e0       $pdata$__acrt_LCMapStringEx 00000001800310e0     libucrt:winapi_thunks.obj
 0004:000010ec       $pdata$__acrt_LocaleNameToLCID 00000001800310ec     libucrt:winapi_thunks.obj
 0004:000010f8       $pdata$__acrt_MessageBoxW  00000001800310f8     libucrt:winapi_thunks.obj
 0004:00001104       $pdata$__acrt_can_show_message_box 0000000180031104     libucrt:winapi_thunks.obj
 0004:00001110       $pdata$__acrt_get_parent_window 0000000180031110     libucrt:winapi_thunks.obj
 0004:0000111c       $pdata$__acrt_initialize_winapi_thunks 000000018003111c     libucrt:winapi_thunks.obj
 0004:00001128       $pdata$__acrt_is_interactive 0000000180031128     libucrt:winapi_thunks.obj
 0004:00001134       $pdata$__acrt_uninitialize_winapi_thunks 0000000180031134     libucrt:winapi_thunks.obj
 0004:00001140       $pdata$_fcloseall          0000000180031140     libucrt:closeall.obj
 0004:0000114c       $pdata$__acrt_stdio_free_buffer_nolock 000000018003114c     libucrt:_freebuf.obj
 0004:00001158       $pdata$?initialize_inherited_file_handles_nolock@@YAXXZ 0000000180031158     libucrt:ioinit.obj
 0004:00001164       $pdata$?initialize_stdio_handles_nolock@@YAXXZ 0000000180031164     libucrt:ioinit.obj
 0004:00001170       $pdata$__acrt_initialize_lowio 0000000180031170     libucrt:ioinit.obj
 0004:0000117c       $pdata$__acrt_uninitialize_lowio 000000018003117c     libucrt:ioinit.obj
 0004:00001188       $pdata$isdigit             0000000180031188     libucrt:_ctype.obj
 0004:00001194       $pdata$strtol              0000000180031194     libucrt:strtox.obj
 0004:000011a0       $pdata$wcstol              00000001800311a0     libucrt:strtox.obj
 0004:000011ac       $pdata$_mbtowc_l           00000001800311ac     libucrt:mbtowc.obj
 0004:000011b8       $pdata$_wctomb_s_l         00000001800311b8     libucrt:wctomb.obj
 0004:000011c4       $pdata$wctomb_s            00000001800311c4     libucrt:wctomb.obj
 0004:000011d0       $pdata$?fp_format_a@@YAHQEBNPEAD_KQEAD2H_NIQEAU__crt_locale_pointers@@@Z 00000001800311d0     libucrt:cvt.obj
 0004:000011dc       $pdata$?fp_format_e@@YAHQEBNQEAD_K12H_NIQEAU__crt_locale_pointers@@@Z 00000001800311dc     libucrt:cvt.obj
 0004:000011e8       $pdata$?fp_format_e_internal@@YAHQEAD_KH_NIQEAU_strflt@@2QEAU__crt_locale_pointers@@@Z 00000001800311e8     libucrt:cvt.obj
 0004:000011f4       $pdata$?fp_format_f_internal@@YAHQEAD_KHQEAU_strflt@@_NQEAU__crt_locale_pointers@@@Z 00000001800311f4     libucrt:cvt.obj
 0004:00001200       $pdata$?fp_format_g@@YAHQEBNQEAD_K12H_NIQEAU__crt_locale_pointers@@@Z 0000000180031200     libucrt:cvt.obj
 0004:0000120c       $pdata$?fp_format_nan_or_infinity@@YAHW4__acrt_fp_class@@_NPEAD_K1@Z 000000018003120c     libucrt:cvt.obj
 0004:00001218       $pdata$__acrt_fp_format    0000000180031218     libucrt:cvt.obj
 0004:00001224       $pdata$_fputwc_nolock      0000000180031224     libucrt:fputwc.obj
 0004:00001230       $pdata$_fileno             0000000180031230     libucrt:fileno.obj
 0004:0000123c       $pdata$__acrt_stdio_begin_temporary_buffering_nolock 000000018003123c     libucrt:_sftbuf.obj
 0004:00001248       $pdata$__acrt_stdio_end_temporary_buffering_nolock 0000000180031248     libucrt:_sftbuf.obj
 0004:00001254       $pdata$__acrt_initialize_locks 0000000180031254     libucrt:locks.obj
 0004:00001260       $pdata$__acrt_uninitialize_locks 0000000180031260     libucrt:locks.obj
 0004:0000126c       $pdata$__acrt_get_developer_information_policy 000000018003126c     libucrt:win_policies.obj
 0004:00001278       $pdata$__acrt_get_process_end_policy 0000000180031278     libucrt:win_policies.obj
 0004:00001284       $pdata$__acrt_get_windowing_model_policy 0000000180031284     libucrt:win_policies.obj
 0004:00001290       $pdata$??$common_expand_argv_wildcards@D@@YAHQEAPEADQEAPEAPEAD@Z 0000000180031290     libucrt:argv_wildcards.obj
 0004:0000129c       $pdata$??$copy_and_add_argument_to_buffer@D@@YAHQEBD0_KAEAV?$argument_list@D@?A0x5f5c8891@@@Z 000000018003129c     libucrt:argv_wildcards.obj
 0004:000012a8       $pdata$??$expand_argument_wildcards@D@@YAHQEAD0AEAV?$argument_list@D@?A0x5f5c8891@@@Z 00000001800312a8     libucrt:argv_wildcards.obj
 0004:000012b4       $pdata$??$?RV<lambda_efdfa57d1f175319df784efa44bb7b81>@@AEAV<lambda_5f0a4c1567f8adc6734073e5d1e1b35c>@@V<lambda_2e8a7d3640ea6ccb4c2413664c2db6fd>@@@?$__crt_seh_guarded_call@X@@QEAAX$$QEAV<lambda_efdfa57d1f175319df784efa44bb7b81>@@AEAV<lambda_5f0a4c1567f8adc6734073e5d1e1b35c>@@$$QEAV<lambda_2e8a7d3640ea6ccb4c2413664c2db6fd>@@@Z 00000001800312b4     libucrt:mbctype.obj
 0004:000012c0       $pdata$?getSystemCP@@YAHH@Z 00000001800312c0     libucrt:mbctype.obj
 0004:000012cc       $pdata$?setSBCS@@YAXPEAU__crt_multibyte_data@@@Z 00000001800312cc     libucrt:mbctype.obj
 0004:000012d8       $pdata$?setSBUpLow@@YAXPEAU__crt_multibyte_data@@@Z 00000001800312d8     libucrt:mbctype.obj
 0004:000012e4       $pdata$?setmbcp_internal@@YAHH_NQEAU__acrt_ptd@@QEAPEAU__crt_multibyte_data@@@Z 00000001800312e4     libucrt:mbctype.obj
 0004:000012f0       $pdata$?update_thread_multibyte_data_internal@@YAPEAU__crt_multibyte_data@@QEAU__acrt_ptd@@QEAPEAU1@@Z 00000001800312f0     libucrt:mbctype.obj
 0004:000012fc       $pdata$__acrt_initialize_multibyte 00000001800312fc     libucrt:mbctype.obj
 0004:00001308       $pdata$__acrt_update_thread_multibyte_data 0000000180031308     libucrt:mbctype.obj
 0004:00001314       $pdata$_setmbcp_nolock     0000000180031314     libucrt:mbctype.obj
 0004:00001320       $pdata$?x_ismbbtype_l@@YAHPEAU__crt_locale_pointers@@IHH@Z 0000000180031320     libucrt:ismbbyte.obj
 0004:0000132c       $pdata$__acrt_initialize_command_line 000000018003132c     libucrt:argv_data.obj
 0004:00001338       $pdata$__acrt_WideCharToMultiByte 0000000180031338     libucrt:widechartomultibyte.obj
 0004:00001344       $pdata$__dcrt_get_narrow_environment_from_os 0000000180031344     libucrt:get_environment_from_os.obj
 0004:00001350       $pdata$_recalloc_base      0000000180031350     libucrt:recalloc.obj
 0004:0000135c       $pdata$__acrt_initialize_heap 000000018003135c     libucrt:heap_handle.obj
 0004:00001368       $pdata$__acrt_execute_initializers 0000000180031368     libucrt:shared_initialization.obj
 0004:00001374       $pdata$__acrt_execute_uninitializers 0000000180031374     libucrt:shared_initialization.obj
 0004:00001380       $pdata$__pctype_func       0000000180031380     libucrt:ctype.obj
 0004:0000138c       $pdata$iswctype            000000018003138c     libucrt:iswctype.obj
 0004:00001398       $pdata$_isctype_l          0000000180031398     libucrt:isctype.obj
 0004:000013a4       $pdata$_isleadbyte_l       00000001800313a4     libucrt:_wctype.obj
 0004:000013b0       $pdata$?__mbrtowc_utf8@__crt_mbstring@@YA_KPEA_WPEBD_KPEAU_Mbstatet@@@Z 00000001800313b0     libucrt:mbrtowc.obj
 0004:000013bc       $pdata$?__mbsrtowcs_utf8@__crt_mbstring@@YA_KPEA_WPEAPEBD_KPEAU_Mbstatet@@@Z 00000001800313bc     libucrt:mbrtowc.obj
 0004:000013c8       $pdata$__acrt_free_locale  00000001800313c8     libucrt:locale_refcounting.obj
 0004:000013d4       $pdata$__acrt_locale_free_lc_time_if_unreferenced 00000001800313d4     libucrt:locale_refcounting.obj
 0004:000013e0       $pdata$__acrt_release_locale_ref 00000001800313e0     libucrt:locale_refcounting.obj
 0004:000013ec       $pdata$__acrt_update_thread_locale_data 00000001800313ec     libucrt:locale_refcounting.obj
 0004:000013f8       $pdata$_updatetlocinfoEx_nolock 00000001800313f8     libucrt:locale_refcounting.obj
 0004:00001404       $pdata$??$?RV<lambda_a37b2b86f63e897a80ea819b0eb08c01>@@AEAV<lambda_38ce7e780aa69e748d6df282ebc68efe>@@V<lambda_99fb1378e971ab6e7edea83e3a7a83a2>@@@?$__crt_seh_guarded_call@H@@QEAAH$$QEAV<lambda_a37b2b86f63e897a80ea819b0eb08c01>@@AEAV<lambda_38ce7e780aa69e748d6df282ebc68efe>@@$$QEAV<lambda_99fb1378e971ab6e7edea83e3a7a83a2>@@@Z 0000000180031404     libucrt:commit.obj
 0004:00001410       $pdata$_commit             0000000180031410     libucrt:commit.obj
 0004:0000141c       $pdata$?write_double_translated_ansi_nolock@@YA?AUwrite_result@?A0x17268360@@HQEBDI@Z 000000018003141c     libucrt:write.obj
 0004:00001428       $pdata$?write_text_ansi_nolock@@YA?AUwrite_result@?A0x17268360@@HQEBDI@Z 0000000180031428     libucrt:write.obj
 0004:00001434       $pdata$?write_text_utf16le_nolock@@YA?AUwrite_result@?A0x17268360@@HQEBDI@Z 0000000180031434     libucrt:write.obj
 0004:00001440       $pdata$?write_text_utf8_nolock@@YA?AUwrite_result@?A0x17268360@@HQEBDI@Z 0000000180031440     libucrt:write.obj
 0004:0000144c       $pdata$_write              000000018003144c     libucrt:write.obj
 0004:00001458       $pdata$_write_nolock       0000000180031458     libucrt:write.obj
 0004:00001464       $pdata$?__acrt_LCMapStringA_stat@@YAHPEAU__crt_locale_pointers@@PEB_WKPEBDHPEADHHH@Z 0000000180031464     libucrt:lcmapstringa.obj
 0004:00001470       $pdata$__acrt_LCMapStringA 0000000180031470     libucrt:lcmapstringa.obj
 0004:0000147c       $pdata$__acrt_locale_free_monetary 000000018003147c     libucrt:initmon.obj
 0004:00001488       $pdata$__acrt_locale_free_numeric 0000000180031488     libucrt:initnum.obj
 0004:00001494       $pdata$?free_crt_array_internal@@YAXQEAPEBX_K@Z 0000000180031494     libucrt:inittime.obj
 0004:000014a0       $pdata$__acrt_locale_free_time 00000001800314a0     libucrt:inittime.obj
 0004:000014ac       $pdata$__acrt_GetStringTypeA 00000001800314ac     libucrt:getstringtypea.obj
 0004:000014b8       $pdata$?GetTableIndexFromLocaleName@@YAHPEB_W@Z 00000001800314b8     libucrt:lcidtoname_downlevel.obj
 0004:000014c4       $pdata$__acrt_DownlevelLocaleNameToLCID 00000001800314c4     libucrt:lcidtoname_downlevel.obj
 0004:000014d0       $pdata$_fclose_nolock      00000001800314d0     libucrt:fclose.obj
 0004:000014dc       $pdata$fclose              00000001800314dc     libucrt:fclose.obj
 0004:000014e8       $pdata$__acrt_lowio_create_handle_array 00000001800314e8     libucrt:osfinfo.obj
 0004:000014f4       $pdata$__acrt_lowio_destroy_handle_array 00000001800314f4     libucrt:osfinfo.obj
 0004:00001500       $pdata$__acrt_lowio_ensure_fh_exists 0000000180031500     libucrt:osfinfo.obj
 0004:0000150c       $pdata$_free_osfhnd        000000018003150c     libucrt:osfinfo.obj
 0004:00001518       $pdata$_get_osfhandle      0000000180031518     libucrt:osfinfo.obj
 0004:00001524       $pdata$__acrt_fp_strflt_to_string 0000000180031524     libucrt:_fptostr.obj
 0004:00001530       $pdata$?divide@__crt_strtox@@YA_KAEAUbig_integer@1@AEBU21@@Z 0000000180031530     libucrt:cfout.obj
 0004:0000153c       $pdata$0$?divide@__crt_strtox@@YA_KAEAUbig_integer@1@AEBU21@@Z 000000018003153c     libucrt:cfout.obj
 0004:00001548       $pdata$6$?divide@__crt_strtox@@YA_KAEAUbig_integer@1@AEBU21@@Z 0000000180031548     libucrt:cfout.obj
 0004:00001554       $pdata$7$?divide@__crt_strtox@@YA_KAEAUbig_integer@1@AEBU21@@Z 0000000180031554     libucrt:cfout.obj
 0004:00001560       $pdata$8$?divide@__crt_strtox@@YA_KAEAUbig_integer@1@AEBU21@@Z 0000000180031560     libucrt:cfout.obj
 0004:0000156c       $pdata$__acrt_fltout       000000018003156c     libucrt:cfout.obj
 0004:00001578       $pdata$memcpy_s            0000000180031578     libucrt:cfout.obj
 0004:00001584       $pdata$??$write_buffer_nolock@D@@YA_NDV__crt_stdio_stream@@@Z 0000000180031584     libucrt:_flsbuf.obj
 0004:00001590       $pdata$??$write_buffer_nolock@_W@@YA_N_WV__crt_stdio_stream@@@Z 0000000180031590     libucrt:_flsbuf.obj
 0004:0000159c       $pdata$__acrt_stdio_flush_and_write_narrow_nolock 000000018003159c     libucrt:_flsbuf.obj
 0004:000015a8       $pdata$__acrt_stdio_flush_and_write_wide_nolock 00000001800315a8     libucrt:_flsbuf.obj
 0004:000015b4       $pdata$_isatty             00000001800315b4     libucrt:isatty.obj
 0004:000015c0       $pdata$qsort               00000001800315c0     libucrt:qsort.obj
 0004:000015cc       $pdata$4$qsort             00000001800315cc     libucrt:qsort.obj
 0004:000015d8       $pdata$5$qsort             00000001800315d8     libucrt:qsort.obj
 0004:000015e4       $pdata$fallbackMethod      00000001800315e4     libucrt:strpbrk.obj
 0004:000015f0       $pdata$strpbrk             00000001800315f0     libucrt:strpbrk.obj
 0004:000015fc       $pdata$??$__acrt_convert_wcs_mbs@D_W$$A6A_KPEA_WPEBD_KPEAU__crt_locale_pointers@@@ZU__crt_win32_buffer_internal_dynamic_resizing@@@@YAHQEBDAEAV?$__crt_win32_buffer@_WU__crt_win32_buffer_internal_dynamic_resizing@@@@A6A_KPEA_WPEBD_KPEAU__crt_locale_pointers@@@Z5@Z 00000001800315fc     libucrt:findfirstfileexa.obj
 0004:00001608       $pdata$__acrt_FindFirstFileExA 0000000180031608     libucrt:findfirstfileexa.obj
 0004:00001614       $pdata$??$__acrt_convert_wcs_mbs@_WD$$A6A_KPEADPEB_W_KPEAU__crt_locale_pointers@@@ZU__crt_win32_buffer_no_resizing@@@@YAHQEB_WAEAV?$__crt_win32_buffer@DU__crt_win32_buffer_no_resizing@@@@A6A_KPEADPEB_W_KPEAU__crt_locale_pointers@@@Z5@Z 0000000180031614     libucrt:findnextfilea.obj
 0004:00001620       $pdata$__acrt_FindNextFileA 0000000180031620     libucrt:findnextfilea.obj
 0004:0000162c       $pdata$_mbsdec_l           000000018003162c     libucrt:mbsdec.obj
 0004:00001638       $pdata$?initialize_multibyte@@YAHXZ 0000000180031638     libucrt:multibyte_initializer.obj
 0004:00001644       $pdata$_msize_base         0000000180031644     libucrt:msize.obj
 0004:00001650       $pdata$_realloc_base       0000000180031650     libucrt:realloc_base.obj
 0004:0000165c       $pdata$?__mbrtoc32_utf8@__crt_mbstring@@YA_KPEA_UPEBD_KPEAU_Mbstatet@@@Z 000000018003165c     libucrt:mbrtoc32.obj
 0004:00001668       $pdata$??$common_lseek@_J@@YA_JH_JH@Z 0000000180031668     libucrt:lseek.obj
 0004:00001674       $pdata$??$common_lseek_nolock@_J@@YA_JH_JH@Z 0000000180031674     libucrt:lseek.obj
 0004:00001680       $pdata$_putwch_nolock      0000000180031680     libucrt:putwch.obj
 0004:0000168c       $pdata$??$?RV<lambda_751a882b2c74d4b022dec766aa51a29a>@@AEAV<lambda_628dfdc04ba53c8bfc02c9951375f3f5>@@V<lambda_f6c7be5f7998530c34de24c7437d6b54>@@@?$__crt_seh_guarded_call@H@@QEAAH$$QEAV<lambda_751a882b2c74d4b022dec766aa51a29a>@@AEAV<lambda_628dfdc04ba53c8bfc02c9951375f3f5>@@$$QEAV<lambda_f6c7be5f7998530c34de24c7437d6b54>@@@Z 000000018003168c     libucrt:close.obj
 0004:00001698       $pdata$_close              0000000180031698     libucrt:close.obj
 0004:000016a4       $pdata$_close_nolock       00000001800316a4     libucrt:close.obj
 0004:000016b0       $pdata$fegetenv            00000001800316b0     libucrt:fegetenv.obj
 0004:000016bc       $pdata$fesetenv            00000001800316bc     libucrt:fesetenv.obj
 0004:000016c8       $pdata$feholdexcept        00000001800316c8     libucrt:feholdexcept.obj
 0004:000016e0       $pdata$__acrt_stdio_allocate_buffer_nolock 00000001800316e0     libucrt:_getbuf.obj
 0004:000016ec       $pdata$?_wcstombs_l_helper@@YA_KPEADPEB_W_KPEAU__crt_locale_pointers@@@Z 00000001800316ec     libucrt:wcstombs.obj
 0004:000016f8       $pdata$__dcrt_lowio_ensure_console_output_initialized 00000001800316f8     libucrt:initcon.obj
 0004:00001704       $pdata$__dcrt_terminate_console_output 0000000180031704     libucrt:initcon.obj
 0004:00001710       $pdata$__dcrt_write_console 0000000180031710     libucrt:initcon.obj
 0004:0000171c       $pdata$__acrt_fenv_set_control 000000018003171c     libucrt:_fenvutils.obj
 0004:00001728       $pdata$_clearfp            0000000180031728     libucrt:ieee.obj
 0004:00001734       $pdata$_call_matherr       0000000180031734     libucrt:libm_error.obj
 0004:00001740       $pdata$_exception_enabled  0000000180031740     libucrt:libm_error.obj
 0004:0000174c       $pdata$_handle_error       000000018003174c     libucrt:libm_error.obj
 0004:00001758       $pdata$__acrt_initialize_fma3 0000000180031758     libucrt:fma3_available.obj
 0004:00001764       $pdata$_log10_special      0000000180031764     libucrt:log_special.obj
 0004:00001770       $pdata$_log_special_common 0000000180031770     libucrt:log_special.obj
 0004:0000177c       $pdata$?__wcsrtombs_utf8@__crt_mbstring@@YA_KPEADPEAPEB_W_KPEAU_Mbstatet@@@Z 000000018003177c     libucrt:wcrtomb.obj
 0004:00001794       $pdata$_raise_exc          0000000180031794     libucrt:fpexcept.obj
 0004:000017a0       $pdata$_raise_exc_ex       00000001800317a0     libucrt:fpexcept.obj
 0004:000017ac       $pdata$_set_errno_from_matherr 00000001800317ac     libucrt:fpexcept.obj
 0004:000017b8       $pdata$_clrfp              00000001800317b8     libucrt:fpctrl.obj
 0004:000017c4       $pdata$_ctrlfp             00000001800317c4     libucrt:fpctrl.obj
 0004:000017d0       $pdata$_set_statfp         00000001800317d0     libucrt:fpctrl.obj
 0004:000017dc       $pdata$_statfp             00000001800317dc     libucrt:fpctrl.obj
 0004:000017e8       $pdata$?__c16rtomb_utf8@__crt_mbstring@@YA_KPEAD_SPEAU_Mbstatet@@@Z 00000001800317e8     libucrt:c16rtomb.obj
 0004:000017f4       $pdata$?__c32rtomb_utf8@__crt_mbstring@@YA_KPEAD_UPEAU_Mbstatet@@@Z 00000001800317f4     libucrt:c32rtomb.obj
 0004:00001800       $pdata$?DloadAcquireSectionWriteAccess@@YAXXZ 0000000180031800     DelayImp:delayhlp.obj
 0004:0000180c       $pdata$?DloadGetSRWLockFunctionPointers@@YAEXZ 000000018003180c     DelayImp:delayhlp.obj
 0004:00001818       $pdata$?DloadMakePermanentImageCommit@@YAXPEAX_K@Z 0000000180031818     DelayImp:delayhlp.obj
 0004:00001824       $pdata$?DloadObtainSection@@YAPEAXPEAK0@Z 0000000180031824     DelayImp:delayhlp.obj
 0004:00001830       $pdata$?DloadProtectSection@@YAXKPEAK@Z 0000000180031830     DelayImp:delayhlp.obj
 0004:0000183c       $pdata$?DloadReleaseSectionWriteAccess@@YAXXZ 000000018003183c     DelayImp:delayhlp.obj
 0004:00001848       $pdata$__delayLoadHelper2  0000000180031848     DelayImp:delayhlp.obj
 0004:00001854       $pdata$__GSHandlerCheck    0000000180031854     LIBCMT:_gshandler_.obj
 0004:00001860       $pdata$__GSHandlerCheckCommon 0000000180031860     LIBCMT:_gshandler_.obj
 0004:0000186c       $pdata$_IsNonwritableInCurrentImage 000000018003186c     LIBCMT:pesect.obj
 0004:00001884       $pdata$__GSHandlerCheck_EH 0000000180031884     LIBCMT:gshandlereh.obj
 0004:0000189c       $pdata$strrchr             000000018003189c     libvcruntime:strrchr.obj
 0004:000018b4       $pdata$?dtor$0@?0??params@@YAXAEBV?$FunctionCallbackInfo@VValue@v8@@@Nan@@@Z@4HA 00000001800318b4     scrypt_params_async.obj
 0004:000018c0       $pdata$?dtor$1@?0??params@@YAXAEBV?$FunctionCallbackInfo@VValue@v8@@@Nan@@@Z@4HA 00000001800318c0     scrypt_params_async.obj
 0004:000018cc       $pdata$?dtor$0@?0???0ScryptKDFVerifyAsyncWorker@@QEAA@AEBV?$FunctionCallbackInfo@VValue@v8@@@Nan@@@Z@4HA 00000001800318cc     scrypt_kdf-verify_async.obj
 0004:000018cc       $pdata$?dtor$0@?0???0ScryptKDFAsyncWorker@@QEAA@AEBV?$FunctionCallbackInfo@VValue@v8@@@Nan@@@Z@4HA 00000001800318cc     scrypt_kdf_async.obj
 0004:000018cc       $pdata$?dtor$0@?0???0ScryptHashAsyncWorker@@QEAA@AEBV?$FunctionCallbackInfo@VValue@v8@@@Nan@@@Z@4HA 00000001800318cc     scrypt_hash_async.obj
 0004:000018d8       $pdata$?dtor$0@?0??kdf@@YAXAEBV?$FunctionCallbackInfo@VValue@v8@@@Nan@@@Z@4HA 00000001800318d8     scrypt_kdf_async.obj
 0004:000018e4       $pdata$?dtor$0@?0??kdfVerify@@YAXAEBV?$FunctionCallbackInfo@VValue@v8@@@Nan@@@Z@4HA 00000001800318e4     scrypt_kdf-verify_async.obj
 0004:000018f0       $pdata$?dtor$0@?0??hash@@YAXAEBV?$FunctionCallbackInfo@VValue@v8@@@Nan@@@Z@4HA 00000001800318f0     scrypt_hash_async.obj
 0004:000018fc       $pdata$?fin$0@?0??dllmain_crt_process_attach@@YAHQEAUHINSTANCE__@@QEAX@Z@4HA 00000001800318fc     LIBCMT:dll_dllmain.obj
 0004:00001908       $pdata$?fin$0@?0??dllmain_crt_process_detach@@YAH_N@Z@4HA 0000000180031908     LIBCMT:dll_dllmain.obj
 0004:00001914       $pdata$?filt$0@?0??dllmain_dispatch@@YAHQEAUHINSTANCE__@@KQEAX@Z@4HA 0000000180031914     LIBCMT:dll_dllmain.obj
 0004:00001920       $pdata$__scrt_is_nonwritable_in_current_image$filt$0 0000000180031920     LIBCMT:utility.obj
 0004:0000192c       $pdata$_CallSETranslator$filt$0 000000018003192c     libvcruntime:risctrnsctrl.obj
 0004:00001938       $pdata$__DestructExceptionObject$filt$0 0000000180031938     libvcruntime:ehhelpers.obj
 0004:00001944       $pdata$__CxxCallCatchBlock$filt$0 0000000180031944     libvcruntime:frame.obj
 0004:00001950       $pdata$__CxxCallCatchBlock$fin$1 0000000180031950     libvcruntime:frame.obj
 0004:0000195c       $pdata$__FrameUnwindToState$filt$0 000000018003195c     libvcruntime:frame.obj
 0004:00001968       $pdata$__FrameUnwindToState$fin$1 0000000180031968     libvcruntime:frame.obj
 0004:00001974       $pdata$?fin$0@?0???$?RV<lambda_c376a267cfb53b6959b3b692ec76b120>@@AEAV<lambda_9a32fed5bf61b6b509b2d3f6003082a1>@@V<lambda_572fbb9fa0ab338edf41edfd4b5fcc8d>@@@?$__crt_seh_guarded_call@H@@QEAAH$$QEAV<lambda_c376a267cfb53b6959b3b692ec76b120>@@AEAV<lambda_9a32fed5bf61b6b509b2d3f6003082a1>@@$$QEAV<lambda_572fbb9fa0ab338edf41edfd4b5fcc8d>@@@Z@4HA 0000000180031974     libucrt:fflush.obj
 0004:00001974       $pdata$?fin$0@?0???$?RV<lambda_84ec643ea9557e2f7dc01bb0e9624395>@@AEAV<lambda_ca71763b3c0644891230e4f79ea54fa6>@@V<lambda_439a761618c59b0600e24586724d733b>@@@?$__crt_seh_guarded_call@H@@QEAAH$$QEAV<lambda_84ec643ea9557e2f7dc01bb0e9624395>@@AEAV<lambda_ca71763b3c0644891230e4f79ea54fa6>@@$$QEAV<lambda_439a761618c59b0600e24586724d733b>@@@Z@4HA 0000000180031974     libucrt:setvbuf.obj
 0004:00001974       $pdata$?fin$0@?0???$?RV<lambda_a62c933ada0517137acf5807a1eeac1f>@@AEAV<lambda_a31071773b9a94e445cbd5d04ef99106>@@V<lambda_56065050dbf3ada7e59a83db45153de3>@@@?$__crt_seh_guarded_call@H@@QEAAH$$QEAV<lambda_a62c933ada0517137acf5807a1eeac1f>@@AEAV<lambda_a31071773b9a94e445cbd5d04ef99106>@@$$QEAV<lambda_56065050dbf3ada7e59a83db45153de3>@@@Z@4HA 0000000180031974     libucrt:output.obj
 0004:00001974       $pdata$?fin$0@?0???$?RV<lambda_0d412022a4b28cc8a401ea49574e8ae6>@@AEAV<lambda_a775ed57af18ba8e4d5dc780aa9068fe>@@V<lambda_975a71a6baa488a08f4e15f6b0339b9e>@@@?$__crt_seh_guarded_call@H@@QEAAH$$QEAV<lambda_0d412022a4b28cc8a401ea49574e8ae6>@@AEAV<lambda_a775ed57af18ba8e4d5dc780aa9068fe>@@$$QEAV<lambda_975a71a6baa488a08f4e15f6b0339b9e>@@@Z@4HA 0000000180031974     libucrt:output.obj
 0004:00001974       $pdata$?fin$0@?0???$?RV<lambda_842d9ff0dc9ef11c61343bbaebe7f885>@@AEAV<lambda_c5860995281e5c4ce005b3de8f5874ee>@@V<lambda_d90129c13df834fdcbf8d2b88dafcf2d>@@@?$__crt_seh_guarded_call@X@@QEAAX$$QEAV<lambda_842d9ff0dc9ef11c61343bbaebe7f885>@@AEAV<lambda_c5860995281e5c4ce005b3de8f5874ee>@@$$QEAV<lambda_d90129c13df834fdcbf8d2b88dafcf2d>@@@Z@4HA 0000000180031974     libucrt:fflush.obj
 0004:00001980       $pdata$_query_new_handler$fin$0 0000000180031980     libucrt:new_handler.obj
 0004:0000198c       $pdata$?fin$0@?0???$?RV<lambda_0ae27a3a962d80f24befdcbee591983d>@@AEAV<lambda_8d0ee55de4b1038c4002e0adecdf1839>@@V<lambda_dc504788e8f1664fe9b84e20bfb512f2>@@@?$__crt_seh_guarded_call@X@@QEAAX$$QEAV<lambda_0ae27a3a962d80f24befdcbee591983d>@@AEAV<lambda_8d0ee55de4b1038c4002e0adecdf1839>@@$$QEAV<lambda_dc504788e8f1664fe9b84e20bfb512f2>@@@Z@4HA 000000018003198c     libucrt:per_thread_data.obj
 0004:0000198c       $pdata$?fin$0@?0???$?RV<lambda_aa87e3671a710a21b5dc78c0bdf72e11>@@AEAV<lambda_92619d2358a28f41a33ba319515a20b9>@@V<lambda_6992ecaafeb10aed2b74cb1fae11a551>@@@?$__crt_seh_guarded_call@X@@QEAAX$$QEAV<lambda_aa87e3671a710a21b5dc78c0bdf72e11>@@AEAV<lambda_92619d2358a28f41a33ba319515a20b9>@@$$QEAV<lambda_6992ecaafeb10aed2b74cb1fae11a551>@@@Z@4HA 000000018003198c     libucrt:per_thread_data.obj
 0004:0000198c       $pdata$?fin$0@?0???$?RV<lambda_450d765d439847d4c735a33c368b5fc0>@@AEAV<lambda_44731a7d0e6d81c3e6aa82d741081786>@@V<lambda_601a2a7da3b7a96e9554ac7215c4b07c>@@@?$__crt_seh_guarded_call@P6AXH@Z@@QEAAP6AXH@Z$$QEAV<lambda_450d765d439847d4c735a33c368b5fc0>@@AEAV<lambda_44731a7d0e6d81c3e6aa82d741081786>@@$$QEAV<lambda_601a2a7da3b7a96e9554ac7215c4b07c>@@@Z@4HA 000000018003198c     libucrt:signal.obj
 0004:0000198c       $pdata$?fin$0@?0???$?RV<lambda_2d41944a1d46af3157314b8a01080d33>@@AEAV<lambda_8f455de75cd7d7f24b4096f044d8b9e6>@@V<lambda_aa500f224e6afead328df44964fe2772>@@@?$__crt_seh_guarded_call@X@@QEAAX$$QEAV<lambda_2d41944a1d46af3157314b8a01080d33>@@AEAV<lambda_8f455de75cd7d7f24b4096f044d8b9e6>@@$$QEAV<lambda_aa500f224e6afead328df44964fe2772>@@@Z@4HA 000000018003198c     libucrt:per_thread_data.obj
 0004:0000198c       $pdata$?fin$0@?0???$?RV<lambda_d80eeec6fff315bfe5c115232f3240e3>@@AEAV<lambda_6e4b09c48022b2350581041d5f6b0c4c>@@V<lambda_2358e3775559c9db80273638284d5e45>@@@?$__crt_seh_guarded_call@X@@QEAAX$$QEAV<lambda_d80eeec6fff315bfe5c115232f3240e3>@@AEAV<lambda_6e4b09c48022b2350581041d5f6b0c4c>@@$$QEAV<lambda_2358e3775559c9db80273638284d5e45>@@@Z@4HA 000000018003198c     libucrt:exit.obj
 0004:0000198c       $pdata$?fin$0@?0???$?RV<lambda_efdfa57d1f175319df784efa44bb7b81>@@AEAV<lambda_5f0a4c1567f8adc6734073e5d1e1b35c>@@V<lambda_2e8a7d3640ea6ccb4c2413664c2db6fd>@@@?$__crt_seh_guarded_call@X@@QEAAX$$QEAV<lambda_efdfa57d1f175319df784efa44bb7b81>@@AEAV<lambda_5f0a4c1567f8adc6734073e5d1e1b35c>@@$$QEAV<lambda_2e8a7d3640ea6ccb4c2413664c2db6fd>@@@Z@4HA 000000018003198c     libucrt:mbctype.obj
 0004:0000198c       $pdata$?fin$0@?0???$?RV<lambda_7777bce6b2f8c936911f934f8298dc43>@@AEAV<lambda_f03950bc5685219e0bcd2087efbe011e>@@V<lambda_3883c3dff614d5e0c5f61bb1ac94921c>@@@?$__crt_seh_guarded_call@H@@QEAAH$$QEAV<lambda_7777bce6b2f8c936911f934f8298dc43>@@AEAV<lambda_f03950bc5685219e0bcd2087efbe011e>@@$$QEAV<lambda_3883c3dff614d5e0c5f61bb1ac94921c>@@@Z@4HA 000000018003198c     libucrt:onexit.obj
 0004:0000198c       $pdata$?fin$0@?0???$?RV<lambda_f2e299630e499de9f9a165e60fcd3db5>@@AEAV<lambda_2ae9d31cdba2644fcbeaf08da7c24588>@@V<lambda_40d01ff24d0e7b3814fdbdcee8eab3c7>@@@?$__crt_seh_guarded_call@X@@QEAAX$$QEAV<lambda_f2e299630e499de9f9a165e60fcd3db5>@@AEAV<lambda_2ae9d31cdba2644fcbeaf08da7c24588>@@$$QEAV<lambda_40d01ff24d0e7b3814fdbdcee8eab3c7>@@@Z@4HA 000000018003198c     libucrt:per_thread_data.obj
 0004:00001998       $pdata$?filt$0@?0???R<lambda_6e4b09c48022b2350581041d5f6b0c4c>@@QEBA@XZ@4HA 0000000180031998     libucrt:exit.obj
 0004:000019a4       $pdata$?fin$0@?0???$?RV<lambda_886d6c58226a84441f68b9f2b8217b83>@@AEAV<lambda_ab61a845afdef5b7c387490eaf3616ee>@@V<lambda_f7f22ab5edc0698d5f6905b0d3f44752>@@@?$__crt_seh_guarded_call@X@@QEAAX$$QEAV<lambda_886d6c58226a84441f68b9f2b8217b83>@@AEAV<lambda_ab61a845afdef5b7c387490eaf3616ee>@@$$QEAV<lambda_f7f22ab5edc0698d5f6905b0d3f44752>@@@Z@4HA 00000001800319a4     libucrt:fflush.obj
 0004:000019b0       $pdata$raise$fin$0         00000001800319b0     libucrt:signal.obj
 0004:000019bc       $pdata$?fin$0@?0???$?RV<lambda_410d79af7f07d98d83a3f525b3859a53>@@AEAV<lambda_3e16ef9562a7dcce91392c22ab16ea36>@@V<lambda_38119f0e861e05405d8a144b9b982f0a>@@@?$__crt_seh_guarded_call@X@@QEAAX$$QEAV<lambda_410d79af7f07d98d83a3f525b3859a53>@@AEAV<lambda_3e16ef9562a7dcce91392c22ab16ea36>@@$$QEAV<lambda_38119f0e861e05405d8a144b9b982f0a>@@@Z@4HA 00000001800319bc     libucrt:wsetlocale.obj
 0004:000019c8       $pdata$_fcloseall$fin$0    00000001800319c8     libucrt:closeall.obj
 0004:000019d4       $pdata$__acrt_lowio_ensure_fh_exists$fin$0 00000001800319d4     libucrt:osfinfo.obj
 0004:000019d4       $pdata$__acrt_initialize_lowio$fin$0 00000001800319d4     libucrt:ioinit.obj
 0004:000019e0       $pdata$?fin$0@?0??update_thread_multibyte_data_internal@@YAPEAU__crt_multibyte_data@@QEAU__acrt_ptd@@QEAPEAU1@@Z@4HA 00000001800319e0     libucrt:mbctype.obj
 0004:000019ec       $pdata$__acrt_update_thread_locale_data$fin$0 00000001800319ec     libucrt:locale_refcounting.obj
 0004:000019f8       $pdata$?fin$0@?0???$?RV<lambda_751a882b2c74d4b022dec766aa51a29a>@@AEAV<lambda_628dfdc04ba53c8bfc02c9951375f3f5>@@V<lambda_f6c7be5f7998530c34de24c7437d6b54>@@@?$__crt_seh_guarded_call@H@@QEAAH$$QEAV<lambda_751a882b2c74d4b022dec766aa51a29a>@@AEAV<lambda_628dfdc04ba53c8bfc02c9951375f3f5>@@$$QEAV<lambda_f6c7be5f7998530c34de24c7437d6b54>@@@Z@4HA 00000001800319f8     libucrt:close.obj
 0004:000019f8       $pdata$?fin$0@?0???$?RV<lambda_a37b2b86f63e897a80ea819b0eb08c01>@@AEAV<lambda_38ce7e780aa69e748d6df282ebc68efe>@@V<lambda_99fb1378e971ab6e7edea83e3a7a83a2>@@@?$__crt_seh_guarded_call@H@@QEAAH$$QEAV<lambda_a37b2b86f63e897a80ea819b0eb08c01>@@AEAV<lambda_38ce7e780aa69e748d6df282ebc68efe>@@$$QEAV<lambda_99fb1378e971ab6e7edea83e3a7a83a2>@@@Z@4HA 00000001800319f8     libucrt:commit.obj
 0004:00001a04       $pdata$_write$fin$0        0000000180031a04     libucrt:write.obj
 0004:00001a04       $pdata$?fin$0@?0???$common_lseek@_J@@YA_JH_JH@Z@4HA 0000000180031a04     libucrt:lseek.obj
 0004:00001a10       $pdata$fclose$fin$0        0000000180031a10     libucrt:fclose.obj
 0004:00001a1c       $pdata$_ctrlfp$filt$0      0000000180031a1c     libucrt:fpctrl.obj
 0004:00001a28       $pdata$_IsNonwritableInCurrentImage$filt$0 0000000180031a28     LIBCMT:pesect.obj
 0005:00000060       $R000000                   0000000180032060     * linker generated manifest res *

 Exports

  ordinal    name

        1    _register_scrypt_
